Archive member included to satisfy reference by file (symbol)

c:/devkitpro/devkitppc/bin/../lib/gcc/powerpc-eabi/12.1.0/../../../../powerpc-eabi/lib\libstdc++.a(del_ops.o)
                              Main.o (_ZdlPvj)
c:/devkitpro/devkitppc/bin/../lib/gcc/powerpc-eabi/12.1.0/../../../../powerpc-eabi/lib\libstdc++.a(eh_personality.o)
                              Main.o (__gxx_personality_v0)
c:/devkitpro/devkitppc/bin/../lib/gcc/powerpc-eabi/12.1.0/../../../../powerpc-eabi/lib\libstdc++.a(eh_terminate.o)
                              c:/devkitpro/devkitppc/bin/../lib/gcc/powerpc-eabi/12.1.0/../../../../powerpc-eabi/lib\libstdc++.a(eh_personality.o) (_ZN10__cxxabiv111__terminateEPFvvE)
c:/devkitpro/devkitppc/bin/../lib/gcc/powerpc-eabi/12.1.0/../../../../powerpc-eabi/lib\libstdc++.a(eh_throw.o)
                              c:/devkitpro/devkitppc/bin/../lib/gcc/powerpc-eabi/12.1.0/../../../../powerpc-eabi/lib\libstdc++.a(eh_personality.o) (__cxa_throw)
c:/devkitpro/devkitppc/bin/../lib/gcc/powerpc-eabi/12.1.0/../../../../powerpc-eabi/lib\libstdc++.a(eh_unex_handler.o)
                              c:/devkitpro/devkitppc/bin/../lib/gcc/powerpc-eabi/12.1.0/../../../../powerpc-eabi/lib\libstdc++.a(eh_terminate.o) (_ZN10__cxxabiv120__unexpected_handlerE)
c:/devkitpro/devkitppc/bin/../lib/gcc/powerpc-eabi/12.1.0/../../../../powerpc-eabi/lib\libstdc++.a(eh_alloc.o)
                              c:/devkitpro/devkitppc/bin/../lib/gcc/powerpc-eabi/12.1.0/../../../../powerpc-eabi/lib\libstdc++.a(eh_personality.o) (__cxa_allocate_exception)
c:/devkitpro/devkitppc/bin/../lib/gcc/powerpc-eabi/12.1.0/../../../../powerpc-eabi/lib\libstdc++.a(eh_call.o)
                              c:/devkitpro/devkitppc/bin/../lib/gcc/powerpc-eabi/12.1.0/../../../../powerpc-eabi/lib\libstdc++.a(eh_personality.o) (__cxa_call_terminate)
c:/devkitpro/devkitppc/bin/../lib/gcc/powerpc-eabi/12.1.0/../../../../powerpc-eabi/lib\libstdc++.a(eh_catch.o)
                              c:/devkitpro/devkitppc/bin/../lib/gcc/powerpc-eabi/12.1.0/../../../../powerpc-eabi/lib\libstdc++.a(eh_personality.o) (__cxa_begin_catch)
c:/devkitpro/devkitppc/bin/../lib/gcc/powerpc-eabi/12.1.0/../../../../powerpc-eabi/lib\libstdc++.a(eh_exception.o)
                              c:/devkitpro/devkitppc/bin/../lib/gcc/powerpc-eabi/12.1.0/../../../../powerpc-eabi/lib\libstdc++.a(eh_alloc.o) (_ZNSt9exceptionD2Ev)
c:/devkitpro/devkitppc/bin/../lib/gcc/powerpc-eabi/12.1.0/../../../../powerpc-eabi/lib\libstdc++.a(eh_globals.o)
                              c:/devkitpro/devkitppc/bin/../lib/gcc/powerpc-eabi/12.1.0/../../../../powerpc-eabi/lib\libstdc++.a(eh_personality.o) (__cxa_get_globals_fast)
c:/devkitpro/devkitppc/bin/../lib/gcc/powerpc-eabi/12.1.0/../../../../powerpc-eabi/lib\libstdc++.a(eh_term_handler.o)
                              c:/devkitpro/devkitppc/bin/../lib/gcc/powerpc-eabi/12.1.0/../../../../powerpc-eabi/lib\libstdc++.a(eh_terminate.o) (_ZN10__cxxabiv119__terminate_handlerE)
c:/devkitpro/devkitppc/bin/../lib/gcc/powerpc-eabi/12.1.0/../../../../powerpc-eabi/lib\libstdc++.a(si_class_type_info.o)
                              c:/devkitpro/devkitppc/bin/../lib/gcc/powerpc-eabi/12.1.0/../../../../powerpc-eabi/lib\libstdc++.a(eh_alloc.o) (_ZTVN10__cxxabiv120__si_class_type_infoE)
c:/devkitpro/devkitppc/bin/../lib/gcc/powerpc-eabi/12.1.0/../../../../powerpc-eabi/lib\libstdc++.a(tinfo.o)
                              c:/devkitpro/devkitppc/bin/../lib/gcc/powerpc-eabi/12.1.0/../../../../powerpc-eabi/lib\libstdc++.a(si_class_type_info.o) (_ZNKSt9type_info14__is_pointer_pEv)
c:/devkitpro/devkitppc/bin/../lib/gcc/powerpc-eabi/12.1.0/../../../../powerpc-eabi/lib\libstdc++.a(class_type_info.o)
                              c:/devkitpro/devkitppc/bin/../lib/gcc/powerpc-eabi/12.1.0/../../../../powerpc-eabi/lib\libstdc++.a(si_class_type_info.o) (_ZNK10__cxxabiv117__class_type_info11__do_upcastEPKS0_PPv)
c:/devkitpro/devkitppc/bin/../lib/gcc/powerpc-eabi/12.1.0\libgcc.a(gthr-dkp.o)
                              c:/devkitpro/devkitppc/bin/../lib/gcc/powerpc-eabi/12.1.0/../../../../powerpc-eabi/lib\libstdc++.a(eh_alloc.o) (__gthread_active_p)
c:/devkitpro/devkitppc/bin/../lib/gcc/powerpc-eabi/12.1.0\libgcc.a(crtresxgpr.o)
                              Main.o (_restgpr_25_x)
c:/devkitpro/devkitppc/bin/../lib/gcc/powerpc-eabi/12.1.0\libgcc.a(unwind-dw2.o)
                              c:/devkitpro/devkitppc/bin/../lib/gcc/powerpc-eabi/12.1.0/../../../../powerpc-eabi/lib\libstdc++.a(eh_personality.o) (_Unwind_SetGR)
c:/devkitpro/devkitppc/bin/../lib/gcc/powerpc-eabi/12.1.0\libgcc.a(unwind-dw2-fde.o)
                              c:/devkitpro/devkitppc/bin/../lib/gcc/powerpc-eabi/12.1.0\libgcc.a(unwind-dw2.o) (_Unwind_Find_FDE)
c:/devkitpro/devkitppc/bin/../lib/gcc/powerpc-eabi/12.1.0/../../../../powerpc-eabi/lib\libsysbase.a(abort.o)
                              c:/devkitpro/devkitppc/bin/../lib/gcc/powerpc-eabi/12.1.0/../../../../powerpc-eabi/lib\libstdc++.a(eh_personality.o) (abort)
c:/devkitpro/devkitppc/bin/../lib/gcc/powerpc-eabi/12.1.0/../../../../powerpc-eabi/lib\libsysbase.a(_exit.o)
                              c:/devkitpro/devkitppc/bin/../lib/gcc/powerpc-eabi/12.1.0/../../../../powerpc-eabi/lib\libsysbase.a(abort.o) (_exit)
c:/devkitpro/devkitppc/bin/../lib/gcc/powerpc-eabi/12.1.0/../../../../powerpc-eabi/lib\libc.a(lib_a-malloc.o)
                              c:/devkitpro/devkitppc/bin/../lib/gcc/powerpc-eabi/12.1.0/../../../../powerpc-eabi/lib\libstdc++.a(eh_alloc.o) (malloc)
c:/devkitpro/devkitppc/bin/../lib/gcc/powerpc-eabi/12.1.0/../../../../powerpc-eabi/lib\libc.a(lib_a-mallocr.o)
                              c:/devkitpro/devkitppc/bin/../lib/gcc/powerpc-eabi/12.1.0/../../../../powerpc-eabi/lib\libc.a(lib_a-malloc.o) (_malloc_r)
c:/devkitpro/devkitppc/bin/../lib/gcc/powerpc-eabi/12.1.0/../../../../powerpc-eabi/lib\libc.a(lib_a-memcpy.o)
                              Main.o (memcpy)
c:/devkitpro/devkitppc/bin/../lib/gcc/powerpc-eabi/12.1.0/../../../../powerpc-eabi/lib\libc.a(lib_a-memset.o)
                              Main.o (memset)
c:/devkitpro/devkitppc/bin/../lib/gcc/powerpc-eabi/12.1.0/../../../../powerpc-eabi/lib\libc.a(lib_a-strcmp.o)
                              c:/devkitpro/devkitppc/bin/../lib/gcc/powerpc-eabi/12.1.0/../../../../powerpc-eabi/lib\libstdc++.a(si_class_type_info.o) (strcmp)
c:/devkitpro/devkitppc/bin/../lib/gcc/powerpc-eabi/12.1.0/../../../../powerpc-eabi/lib\libc.a(lib_a-strlen.o)
                              c:/devkitpro/devkitppc/bin/../lib/gcc/powerpc-eabi/12.1.0\libgcc.a(unwind-dw2.o) (strlen)
c:/devkitpro/devkitppc/bin/../lib/gcc/powerpc-eabi/12.1.0/../../../../powerpc-eabi/lib\libc.a(lib_a-syswrite.o)
                              c:/devkitpro/devkitppc/bin/../lib/gcc/powerpc-eabi/12.1.0/../../../../powerpc-eabi/lib\libsysbase.a(abort.o) (write)
c:/devkitpro/devkitppc/bin/../lib/gcc/powerpc-eabi/12.1.0/../../../../powerpc-eabi/lib\libc.a(lib_a-freer.o)
                              c:/devkitpro/devkitppc/bin/../lib/gcc/powerpc-eabi/12.1.0/../../../../powerpc-eabi/lib\libc.a(lib_a-malloc.o) (_free_r)
c:/devkitpro/devkitppc/bin/../lib/gcc/powerpc-eabi/12.1.0/../../../../powerpc-eabi/lib\libc.a(lib_a-impure.o)
                              c:/devkitpro/devkitppc/bin/../lib/gcc/powerpc-eabi/12.1.0/../../../../powerpc-eabi/lib\libc.a(lib_a-malloc.o) (_impure_ptr)
c:/devkitpro/devkitppc/bin/../lib/gcc/powerpc-eabi/12.1.0/../../../../powerpc-eabi/lib\libsysbase.a(sbrk.o)
                              c:/devkitpro/devkitppc/bin/../lib/gcc/powerpc-eabi/12.1.0/../../../../powerpc-eabi/lib\libc.a(lib_a-mallocr.o) (_sbrk_r)
c:/devkitpro/devkitppc/bin/../lib/gcc/powerpc-eabi/12.1.0/../../../../powerpc-eabi/lib\libsysbase.a(write.o)
                              c:/devkitpro/devkitppc/bin/../lib/gcc/powerpc-eabi/12.1.0/../../../../powerpc-eabi/lib\libc.a(lib_a-syswrite.o) (_write_r)
c:/devkitpro/devkitppc/bin/../lib/gcc/powerpc-eabi/12.1.0/../../../../powerpc-eabi/lib\libsysbase.a(handle_manager.o)
                              c:/devkitpro/devkitppc/bin/../lib/gcc/powerpc-eabi/12.1.0/../../../../powerpc-eabi/lib\libsysbase.a(write.o) (__get_handle)
c:/devkitpro/devkitppc/bin/../lib/gcc/powerpc-eabi/12.1.0/../../../../powerpc-eabi/lib\libsysbase.a(syscall_support.o)
                              c:/devkitpro/devkitppc/bin/../lib/gcc/powerpc-eabi/12.1.0/../../../../powerpc-eabi/lib\libsysbase.a(handle_manager.o) (__libc_lock_init)
c:/devkitpro/devkitppc/bin/../lib/gcc/powerpc-eabi/12.1.0/../../../../powerpc-eabi/lib\libsysbase.a(iosupport.o)
                              c:/devkitpro/devkitppc/bin/../lib/gcc/powerpc-eabi/12.1.0/../../../../powerpc-eabi/lib\libsysbase.a(write.o) (devoptab_list)
c:/devkitpro/devkitppc/bin/../lib/gcc/powerpc-eabi/12.1.0/../../../../powerpc-eabi/lib\libc.a(lib_a-ctype_.o)
                              c:/devkitpro/devkitppc/bin/../lib/gcc/powerpc-eabi/12.1.0/../../../../powerpc-eabi/lib\libsysbase.a(iosupport.o) (_ctype_)
c:/devkitpro/devkitppc/bin/../lib/gcc/powerpc-eabi/12.1.0/../../../../powerpc-eabi/lib\libc.a(lib_a-errno.o)
                              c:/devkitpro/devkitppc/bin/../lib/gcc/powerpc-eabi/12.1.0/../../../../powerpc-eabi/lib\libsysbase.a(handle_manager.o) (__errno)
c:/devkitpro/devkitppc/bin/../lib/gcc/powerpc-eabi/12.1.0/../../../../powerpc-eabi/lib\libc.a(lib_a-strchr.o)
                              c:/devkitpro/devkitppc/bin/../lib/gcc/powerpc-eabi/12.1.0/../../../../powerpc-eabi/lib\libsysbase.a(iosupport.o) (strchr)
c:/devkitpro/devkitppc/bin/../lib/gcc/powerpc-eabi/12.1.0/../../../../powerpc-eabi/lib\libc.a(lib_a-strncmp.o)
                              c:/devkitpro/devkitppc/bin/../lib/gcc/powerpc-eabi/12.1.0/../../../../powerpc-eabi/lib\libsysbase.a(iosupport.o) (strncmp)

Discarded input sections

 .text          0x0000000000000000        0x0 c:/devkitpro/devkitppc/bin/../lib/gcc/powerpc-eabi/12.1.0/ecrti.o
 .data          0x0000000000000000        0x0 c:/devkitpro/devkitppc/bin/../lib/gcc/powerpc-eabi/12.1.0/ecrti.o
 .bss           0x0000000000000000        0x0 c:/devkitpro/devkitppc/bin/../lib/gcc/powerpc-eabi/12.1.0/ecrti.o
 .comment       0x0000000000000000        0xe c:/devkitpro/devkitppc/bin/../lib/gcc/powerpc-eabi/12.1.0/ecrti.o
 .got           0x0000000000000000        0x0 c:/devkitpro/devkitppc/bin/../lib/gcc/powerpc-eabi/12.1.0/ecrti.o
 .got1          0x0000000000000000        0x0 c:/devkitpro/devkitppc/bin/../lib/gcc/powerpc-eabi/12.1.0/ecrti.o
 .got2          0x0000000000000000        0x0 c:/devkitpro/devkitppc/bin/../lib/gcc/powerpc-eabi/12.1.0/ecrti.o
 .fixup         0x0000000000000000        0x0 c:/devkitpro/devkitppc/bin/../lib/gcc/powerpc-eabi/12.1.0/ecrti.o
 .ctors         0x0000000000000000        0x0 c:/devkitpro/devkitppc/bin/../lib/gcc/powerpc-eabi/12.1.0/ecrti.o
 .dtors         0x0000000000000000        0x0 c:/devkitpro/devkitppc/bin/../lib/gcc/powerpc-eabi/12.1.0/ecrti.o
 .sdata         0x0000000000000000        0x0 c:/devkitpro/devkitppc/bin/../lib/gcc/powerpc-eabi/12.1.0/ecrti.o
 .sbss          0x0000000000000000        0x0 c:/devkitpro/devkitppc/bin/../lib/gcc/powerpc-eabi/12.1.0/ecrti.o
 .sdata2        0x0000000000000000        0x0 c:/devkitpro/devkitppc/bin/../lib/gcc/powerpc-eabi/12.1.0/ecrti.o
 .sbss2         0x0000000000000000        0x0 c:/devkitpro/devkitppc/bin/../lib/gcc/powerpc-eabi/12.1.0/ecrti.o
 .gcc_except_table
                0x0000000000000000        0x0 c:/devkitpro/devkitppc/bin/../lib/gcc/powerpc-eabi/12.1.0/ecrti.o
 .eh_frame      0x0000000000000000        0x0 c:/devkitpro/devkitppc/bin/../lib/gcc/powerpc-eabi/12.1.0/ecrti.o
 .init          0x0000000000000000        0xc c:/devkitpro/devkitppc/bin/../lib/gcc/powerpc-eabi/12.1.0/ecrti.o
 .fini          0x0000000000000000        0xc c:/devkitpro/devkitppc/bin/../lib/gcc/powerpc-eabi/12.1.0/ecrti.o
 .text          0x0000000000000000       0x20 c:/devkitpro/devkitppc/bin/../lib/gcc/powerpc-eabi/12.1.0/crtbegin.o
 .data          0x0000000000000000        0x0 c:/devkitpro/devkitppc/bin/../lib/gcc/powerpc-eabi/12.1.0/crtbegin.o
 .bss           0x0000000000000000        0x0 c:/devkitpro/devkitppc/bin/../lib/gcc/powerpc-eabi/12.1.0/crtbegin.o
 .ctors         0x0000000000000000        0x4 c:/devkitpro/devkitppc/bin/../lib/gcc/powerpc-eabi/12.1.0/crtbegin.o
 .dtors         0x0000000000000000        0x4 c:/devkitpro/devkitppc/bin/../lib/gcc/powerpc-eabi/12.1.0/crtbegin.o
 .eh_frame      0x0000000000000000        0x0 c:/devkitpro/devkitppc/bin/../lib/gcc/powerpc-eabi/12.1.0/crtbegin.o
 .data.__dso_handle
                0x0000000000000000        0x4 c:/devkitpro/devkitppc/bin/../lib/gcc/powerpc-eabi/12.1.0/crtbegin.o
 .text.__do_global_dtors_aux
                0x0000000000000000       0xcc c:/devkitpro/devkitppc/bin/../lib/gcc/powerpc-eabi/12.1.0/crtbegin.o
 .text.call___do_global_dtors_aux
                0x0000000000000000        0xc c:/devkitpro/devkitppc/bin/../lib/gcc/powerpc-eabi/12.1.0/crtbegin.o
 .fini          0x0000000000000000        0x4 c:/devkitpro/devkitppc/bin/../lib/gcc/powerpc-eabi/12.1.0/crtbegin.o
 .text.frame_dummy
                0x0000000000000000       0x24 c:/devkitpro/devkitppc/bin/../lib/gcc/powerpc-eabi/12.1.0/crtbegin.o
 .text.call_frame_dummy
                0x0000000000000000        0xc c:/devkitpro/devkitppc/bin/../lib/gcc/powerpc-eabi/12.1.0/crtbegin.o
 .init          0x0000000000000000        0x4 c:/devkitpro/devkitppc/bin/../lib/gcc/powerpc-eabi/12.1.0/crtbegin.o
 .bss.completed.2
                0x0000000000000000        0x1 c:/devkitpro/devkitppc/bin/../lib/gcc/powerpc-eabi/12.1.0/crtbegin.o
 .bss.dtor_idx.1
                0x0000000000000000        0x4 c:/devkitpro/devkitppc/bin/../lib/gcc/powerpc-eabi/12.1.0/crtbegin.o
 .bss.object.0  0x0000000000000000       0x18 c:/devkitpro/devkitppc/bin/../lib/gcc/powerpc-eabi/12.1.0/crtbegin.o
 .comment       0x0000000000000000       0x24 c:/devkitpro/devkitppc/bin/../lib/gcc/powerpc-eabi/12.1.0/crtbegin.o
 .group         0x0000000000000000        0xc Main.o
 .group         0x0000000000000000        0xc Main.o
 .text          0x0000000000000000        0x0 Main.o
 .data          0x0000000000000000        0x0 Main.o
 .bss           0x0000000000000000        0x0 Main.o
 .text._ZdaPv   0x0000000000000000       0x20 Main.o
 .gcc_except_table._ZdaPv
                0x0000000000000000        0x4 Main.o
 .text._Z8writeMemjj
                0x0000000000000000        0x8 Main.o
 .text._Z8branchTojPv
                0x0000000000000000       0x1c Main.o
 .text._Z21setupRealInstructionsPjj
                0x0000000000000000       0x90 Main.o
 .text._Z5_TESTjji
                0x0000000000000000       0x9c Main.o
 .text._Z19replaceInstructionsjN2xf6VectorIjEE
                0x0000000000000000       0x9c Main.o
 .text._Z21SC0x25_KernelCopyDatajjj
                0x0000000000000000       0x10 Main.o
 .rodata._Z14kernelCopyDataPhS_j.str1.1
                0x0000000000000000       0x21 Main.o
 .text._Z14kernelCopyDataPhS_j
                0x0000000000000000       0xa0 Main.o
 .text._Z13kernelCopyIntPhS_j
                0x0000000000000000       0x70 Main.o
 .text._Z17writeKernelMemoryPKvj
                0x0000000000000000       0x14 Main.o
 .text._Z13memoryReleasev
                0x0000000000000000       0x98 Main.o
 .text._Z13__wrap_mallocj
                0x0000000000000000       0x14 Main.o
 .text._Z15__wrap_memalignjj
                0x0000000000000000       0x2c Main.o
 .text._Z11__wrap_freePv
                0x0000000000000000       0x1c Main.o
 .text._Z13__wrap_callocjj
                0x0000000000000000       0x3c Main.o
 .text._Z25__wrap_malloc_usable_sizePv
                0x0000000000000000        0xc Main.o
 .text._Z14__wrap_reallocPvj
                0x0000000000000000       0x60 Main.o
 .text._Z16__wrap__malloc_rP6_reentj
                0x0000000000000000        0x8 Main.o
 .text._Z16__wrap__calloc_rP6_reentjj
                0x0000000000000000        0xc Main.o
 .text._Z18__wrap__memalign_rP6_reentjj
                0x0000000000000000        0xc Main.o
 .text._Z14__wrap__free_rP6_reentPv
                0x0000000000000000        0x8 Main.o
 .text._Z28__wrap__malloc_usable_size_rP6_reentPv
                0x0000000000000000        0xc Main.o
 .text._Z17__wrap__realloc_rP6_reentPvj
                0x0000000000000000        0xc Main.o
 .text._Z10MEM2_allocjj
                0x0000000000000000       0x10 Main.o
 .text._Z9MEM2_freePv
                0x0000000000000000        0x4 Main.o
 .text._Z10MEM1_allocjj
                0x0000000000000000       0x2c Main.o
 .text._Z9MEM1_freePv
                0x0000000000000000       0x1c Main.o
 .text._Z15MEMBucket_allocjj
                0x0000000000000000       0x2c Main.o
 .text._Z14MEMBucket_freePv
                0x0000000000000000       0x1c Main.o
 .text._ZN2mc5toIntEf
                0x0000000000000000       0x60 Main.o
 .text._ZN2mc7toFloatEi
                0x0000000000000000       0x5c Main.o
 .rodata._Z13getEffectNamei.str2.2
                0x0000000000000000        0xa Main.o
 .text._Z13getEffectNamei
                0x0000000000000000       0x60 Main.o
 .text._Z9mc_wcscpyPKwS0_
                0x0000000000000000       0x10 Main.o
 .text._Z9mc_wcslenPKw
                0x0000000000000000       0x10 Main.o
 .rodata._Z11charToWCharPKci.str2.2
                0x0000000000000000        0x2 Main.o
 .text._Z11charToWCharPKci
                0x0000000000000000       0xd0 Main.o
 .text._Z5isinfd
                0x0000000000000000       0x38 Main.o
 .text._Z5isnand
                0x0000000000000000       0x34 Main.o
 .text._Znwj    0x0000000000000000        0x4 Main.o
 .rodata._Z11wcharToCharPKwi.str1.1
                0x0000000000000000        0x1 Main.o
 .text._Z11wcharToCharPKwi
                0x0000000000000000       0xa8 Main.o
 .rodata._Z6toCStrfi.str2.2
                0x0000000000000000       0x3a Main.o
 .rodata._Z6toCStrfi.str1.1
                0x0000000000000000        0x2 Main.o
 .text._Z6toCStrfi
                0x0000000000000000      0x168 Main.o
 .text._Znaj    0x0000000000000000        0x4 Main.o
 .text._Z4_newIjEPT_j
                0x0000000000000000       0x44 Main.o
 .text._Z16safeInstructionsj
                0x0000000000000000       0x8c Main.o
 .text.startup._GLOBAL__sub_I_entry
                0x0000000000000000       0x18 Main.o
 .ctors         0x0000000000000000        0x4 Main.o
 .rodata.str2.2
                0x0000000000000000      0x236 Main.o
 .bss.kernelCopyBuffer
                0x0000000000000000       0x10 Main.o
 .bss.kernelCopyBufferOld
                0x0000000000000000       0x80 Main.o
 .bss.instructionBuffer
                0x0000000000000000      0x400 Main.o
 .sbss.__test_index
                0x0000000000000000        0x4 Main.o
 .sbss._ZN4code7mLehmerE
                0x0000000000000000        0x4 Main.o
 .rodata.cst4   0x0000000000000000        0xc Main.o
 .rodata        0x0000000000000000       0x70 Main.o
 .eh_frame      0x0000000000000000      0x7a8 Main.o
 .text          0x0000000000000000        0x0 c:/devkitpro/devkitppc/bin/../lib/gcc/powerpc-eabi/12.1.0/../../../../powerpc-eabi/lib\libstdc++.a(del_ops.o)
 .data          0x0000000000000000        0x0 c:/devkitpro/devkitppc/bin/../lib/gcc/powerpc-eabi/12.1.0/../../../../powerpc-eabi/lib\libstdc++.a(del_ops.o)
 .bss           0x0000000000000000        0x0 c:/devkitpro/devkitppc/bin/../lib/gcc/powerpc-eabi/12.1.0/../../../../powerpc-eabi/lib\libstdc++.a(del_ops.o)
 .eh_frame      0x0000000000000000       0x28 c:/devkitpro/devkitppc/bin/../lib/gcc/powerpc-eabi/12.1.0/../../../../powerpc-eabi/lib\libstdc++.a(del_ops.o)
 .text          0x0000000000000000        0x0 c:/devkitpro/devkitppc/bin/../lib/gcc/powerpc-eabi/12.1.0/../../../../powerpc-eabi/lib\libstdc++.a(eh_personality.o)
 .data          0x0000000000000000        0x0 c:/devkitpro/devkitppc/bin/../lib/gcc/powerpc-eabi/12.1.0/../../../../powerpc-eabi/lib\libstdc++.a(eh_personality.o)
 .bss           0x0000000000000000        0x0 c:/devkitpro/devkitppc/bin/../lib/gcc/powerpc-eabi/12.1.0/../../../../powerpc-eabi/lib\libstdc++.a(eh_personality.o)
 .text.__cxa_call_unexpected
                0x0000000000000000       0xf8 c:/devkitpro/devkitppc/bin/../lib/gcc/powerpc-eabi/12.1.0/../../../../powerpc-eabi/lib\libstdc++.a(eh_personality.o)
 .gcc_except_table.__cxa_call_unexpected
                0x0000000000000000       0x20 c:/devkitpro/devkitppc/bin/../lib/gcc/powerpc-eabi/12.1.0/../../../../powerpc-eabi/lib\libstdc++.a(eh_personality.o)
 .eh_frame      0x0000000000000000      0x320 c:/devkitpro/devkitppc/bin/../lib/gcc/powerpc-eabi/12.1.0/../../../../powerpc-eabi/lib\libstdc++.a(eh_personality.o)
 .text          0x0000000000000000        0x0 c:/devkitpro/devkitppc/bin/../lib/gcc/powerpc-eabi/12.1.0/../../../../powerpc-eabi/lib\libstdc++.a(eh_terminate.o)
 .data          0x0000000000000000        0x0 c:/devkitpro/devkitppc/bin/../lib/gcc/powerpc-eabi/12.1.0/../../../../powerpc-eabi/lib\libstdc++.a(eh_terminate.o)
 .bss           0x0000000000000000        0x0 c:/devkitpro/devkitppc/bin/../lib/gcc/powerpc-eabi/12.1.0/../../../../powerpc-eabi/lib\libstdc++.a(eh_terminate.o)
 .text._ZSt13set_terminatePFvvE
                0x0000000000000000       0x34 c:/devkitpro/devkitppc/bin/../lib/gcc/powerpc-eabi/12.1.0/../../../../powerpc-eabi/lib\libstdc++.a(eh_terminate.o)
 .text._ZSt13get_terminatev
                0x0000000000000000       0x18 c:/devkitpro/devkitppc/bin/../lib/gcc/powerpc-eabi/12.1.0/../../../../powerpc-eabi/lib\libstdc++.a(eh_terminate.o)
 .text._ZSt14set_unexpectedPFvvE
                0x0000000000000000       0x34 c:/devkitpro/devkitppc/bin/../lib/gcc/powerpc-eabi/12.1.0/../../../../powerpc-eabi/lib\libstdc++.a(eh_terminate.o)
 .text._ZSt14get_unexpectedv
                0x0000000000000000       0x18 c:/devkitpro/devkitppc/bin/../lib/gcc/powerpc-eabi/12.1.0/../../../../powerpc-eabi/lib\libstdc++.a(eh_terminate.o)
 .eh_frame      0x0000000000000000       0xe4 c:/devkitpro/devkitppc/bin/../lib/gcc/powerpc-eabi/12.1.0/../../../../powerpc-eabi/lib\libstdc++.a(eh_terminate.o)
 .text          0x0000000000000000        0x0 c:/devkitpro/devkitppc/bin/../lib/gcc/powerpc-eabi/12.1.0/../../../../powerpc-eabi/lib\libstdc++.a(eh_throw.o)
 .data          0x0000000000000000        0x0 c:/devkitpro/devkitppc/bin/../lib/gcc/powerpc-eabi/12.1.0/../../../../powerpc-eabi/lib\libstdc++.a(eh_throw.o)
 .bss           0x0000000000000000        0x0 c:/devkitpro/devkitppc/bin/../lib/gcc/powerpc-eabi/12.1.0/../../../../powerpc-eabi/lib\libstdc++.a(eh_throw.o)
 .text._ZL23__gxx_exception_cleanup19_Unwind_Reason_CodeP17_Unwind_Exception
                0x0000000000000000       0x8c c:/devkitpro/devkitppc/bin/../lib/gcc/powerpc-eabi/12.1.0/../../../../powerpc-eabi/lib\libstdc++.a(eh_throw.o)
 .text.__cxa_init_primary_exception
                0x0000000000000000       0x70 c:/devkitpro/devkitppc/bin/../lib/gcc/powerpc-eabi/12.1.0/../../../../powerpc-eabi/lib\libstdc++.a(eh_throw.o)
 .text.__cxa_throw
                0x0000000000000000       0x68 c:/devkitpro/devkitppc/bin/../lib/gcc/powerpc-eabi/12.1.0/../../../../powerpc-eabi/lib\libstdc++.a(eh_throw.o)
 .text.__cxa_rethrow
                0x0000000000000000       0x8c c:/devkitpro/devkitppc/bin/../lib/gcc/powerpc-eabi/12.1.0/../../../../powerpc-eabi/lib\libstdc++.a(eh_throw.o)
 .comment       0x0000000000000000       0x24 c:/devkitpro/devkitppc/bin/../lib/gcc/powerpc-eabi/12.1.0/../../../../powerpc-eabi/lib\libstdc++.a(eh_throw.o)
 .eh_frame      0x0000000000000000       0xb0 c:/devkitpro/devkitppc/bin/../lib/gcc/powerpc-eabi/12.1.0/../../../../powerpc-eabi/lib\libstdc++.a(eh_throw.o)
 .text          0x0000000000000000        0x0 c:/devkitpro/devkitppc/bin/../lib/gcc/powerpc-eabi/12.1.0/../../../../powerpc-eabi/lib\libstdc++.a(eh_unex_handler.o)
 .data          0x0000000000000000        0x0 c:/devkitpro/devkitppc/bin/../lib/gcc/powerpc-eabi/12.1.0/../../../../powerpc-eabi/lib\libstdc++.a(eh_unex_handler.o)
 .bss           0x0000000000000000        0x0 c:/devkitpro/devkitppc/bin/../lib/gcc/powerpc-eabi/12.1.0/../../../../powerpc-eabi/lib\libstdc++.a(eh_unex_handler.o)
 .group         0x0000000000000000        0xc c:/devkitpro/devkitppc/bin/../lib/gcc/powerpc-eabi/12.1.0/../../../../powerpc-eabi/lib\libstdc++.a(eh_alloc.o)
 .group         0x0000000000000000        0xc c:/devkitpro/devkitppc/bin/../lib/gcc/powerpc-eabi/12.1.0/../../../../powerpc-eabi/lib\libstdc++.a(eh_alloc.o)
 .group         0x0000000000000000       0x14 c:/devkitpro/devkitppc/bin/../lib/gcc/powerpc-eabi/12.1.0/../../../../powerpc-eabi/lib\libstdc++.a(eh_alloc.o)
 .group         0x0000000000000000       0x14 c:/devkitpro/devkitppc/bin/../lib/gcc/powerpc-eabi/12.1.0/../../../../powerpc-eabi/lib\libstdc++.a(eh_alloc.o)
 .group         0x0000000000000000        0xc c:/devkitpro/devkitppc/bin/../lib/gcc/powerpc-eabi/12.1.0/../../../../powerpc-eabi/lib\libstdc++.a(eh_alloc.o)
 .group         0x0000000000000000        0xc c:/devkitpro/devkitppc/bin/../lib/gcc/powerpc-eabi/12.1.0/../../../../powerpc-eabi/lib\libstdc++.a(eh_alloc.o)
 .group         0x0000000000000000        0x8 c:/devkitpro/devkitppc/bin/../lib/gcc/powerpc-eabi/12.1.0/../../../../powerpc-eabi/lib\libstdc++.a(eh_alloc.o)
 .group         0x0000000000000000        0xc c:/devkitpro/devkitppc/bin/../lib/gcc/powerpc-eabi/12.1.0/../../../../powerpc-eabi/lib\libstdc++.a(eh_alloc.o)
 .group         0x0000000000000000        0x8 c:/devkitpro/devkitppc/bin/../lib/gcc/powerpc-eabi/12.1.0/../../../../powerpc-eabi/lib\libstdc++.a(eh_alloc.o)
 .group         0x0000000000000000        0xc c:/devkitpro/devkitppc/bin/../lib/gcc/powerpc-eabi/12.1.0/../../../../powerpc-eabi/lib\libstdc++.a(eh_alloc.o)
 .group         0x0000000000000000        0xc c:/devkitpro/devkitppc/bin/../lib/gcc/powerpc-eabi/12.1.0/../../../../powerpc-eabi/lib\libstdc++.a(eh_alloc.o)
 .group         0x0000000000000000        0xc c:/devkitpro/devkitppc/bin/../lib/gcc/powerpc-eabi/12.1.0/../../../../powerpc-eabi/lib\libstdc++.a(eh_alloc.o)
 .text          0x0000000000000000        0x0 c:/devkitpro/devkitppc/bin/../lib/gcc/powerpc-eabi/12.1.0/../../../../powerpc-eabi/lib\libstdc++.a(eh_alloc.o)
 .data          0x0000000000000000        0x0 c:/devkitpro/devkitppc/bin/../lib/gcc/powerpc-eabi/12.1.0/../../../../powerpc-eabi/lib\libstdc++.a(eh_alloc.o)
 .bss           0x0000000000000000        0x0 c:/devkitpro/devkitppc/bin/../lib/gcc/powerpc-eabi/12.1.0/../../../../powerpc-eabi/lib\libstdc++.a(eh_alloc.o)
 .rodata._ZNK9__gnu_cxx24__concurrence_lock_error4whatEv.str1.4
                0x0000000000000000       0x24 c:/devkitpro/devkitppc/bin/../lib/gcc/powerpc-eabi/12.1.0/../../../../powerpc-eabi/lib\libstdc++.a(eh_alloc.o)
 .text._ZNK9__gnu_cxx24__concurrence_lock_error4whatEv
                0x0000000000000000        0xc c:/devkitpro/devkitppc/bin/../lib/gcc/powerpc-eabi/12.1.0/../../../../powerpc-eabi/lib\libstdc++.a(eh_alloc.o)
 .rodata._ZNK9__gnu_cxx26__concurrence_unlock_error4whatEv.str1.4
                0x0000000000000000       0x26 c:/devkitpro/devkitppc/bin/../lib/gcc/powerpc-eabi/12.1.0/../../../../powerpc-eabi/lib\libstdc++.a(eh_alloc.o)
 .text._ZNK9__gnu_cxx26__concurrence_unlock_error4whatEv
                0x0000000000000000        0xc c:/devkitpro/devkitppc/bin/../lib/gcc/powerpc-eabi/12.1.0/../../../../powerpc-eabi/lib\libstdc++.a(eh_alloc.o)
 .text._ZN9__gnu_cxx24__concurrence_lock_errorD2Ev
                0x0000000000000000       0x10 c:/devkitpro/devkitppc/bin/../lib/gcc/powerpc-eabi/12.1.0/../../../../powerpc-eabi/lib\libstdc++.a(eh_alloc.o)
 .text._ZN9__gnu_cxx26__concurrence_unlock_errorD2Ev
                0x0000000000000000       0x10 c:/devkitpro/devkitppc/bin/../lib/gcc/powerpc-eabi/12.1.0/../../../../powerpc-eabi/lib\libstdc++.a(eh_alloc.o)
 .text._ZN9__gnu_cxx24__concurrence_lock_errorD0Ev
                0x0000000000000000       0x40 c:/devkitpro/devkitppc/bin/../lib/gcc/powerpc-eabi/12.1.0/../../../../powerpc-eabi/lib\libstdc++.a(eh_alloc.o)
 .text._ZN9__gnu_cxx26__concurrence_unlock_errorD0Ev
                0x0000000000000000       0x40 c:/devkitpro/devkitppc/bin/../lib/gcc/powerpc-eabi/12.1.0/../../../../powerpc-eabi/lib\libstdc++.a(eh_alloc.o)
 .text.unlikely._ZN9__gnu_cxx30__throw_concurrence_lock_errorEv
                0x0000000000000000       0x34 c:/devkitpro/devkitppc/bin/../lib/gcc/powerpc-eabi/12.1.0/../../../../powerpc-eabi/lib\libstdc++.a(eh_alloc.o)
 .text.unlikely._ZN9__gnu_cxx32__throw_concurrence_unlock_errorEv
                0x0000000000000000       0x34 c:/devkitpro/devkitppc/bin/../lib/gcc/powerpc-eabi/12.1.0/../../../../powerpc-eabi/lib\libstdc++.a(eh_alloc.o)
 .text._ZN12_GLOBAL__N_14pool4freeEPv.constprop.0
                0x0000000000000000      0x144 c:/devkitpro/devkitppc/bin/../lib/gcc/powerpc-eabi/12.1.0/../../../../powerpc-eabi/lib\libstdc++.a(eh_alloc.o)
 .gcc_except_table._ZN12_GLOBAL__N_14pool4freeEPv.constprop.0
                0x0000000000000000        0xd c:/devkitpro/devkitppc/bin/../lib/gcc/powerpc-eabi/12.1.0/../../../../powerpc-eabi/lib\libstdc++.a(eh_alloc.o)
 .text._ZN12_GLOBAL__N_14pool8allocateEj.constprop.0
                0x0000000000000000       0xfc c:/devkitpro/devkitppc/bin/../lib/gcc/powerpc-eabi/12.1.0/../../../../powerpc-eabi/lib\libstdc++.a(eh_alloc.o)
 .gcc_except_table._ZN12_GLOBAL__N_14pool8allocateEj.constprop.0
                0x0000000000000000        0xd c:/devkitpro/devkitppc/bin/../lib/gcc/powerpc-eabi/12.1.0/../../../../powerpc-eabi/lib\libstdc++.a(eh_alloc.o)
 .text._ZN9__gnu_cxx9__freeresEv
                0x0000000000000000       0x44 c:/devkitpro/devkitppc/bin/../lib/gcc/powerpc-eabi/12.1.0/../../../../powerpc-eabi/lib\libstdc++.a(eh_alloc.o)
 .text.__cxa_allocate_exception
                0x0000000000000000       0x64 c:/devkitpro/devkitppc/bin/../lib/gcc/powerpc-eabi/12.1.0/../../../../powerpc-eabi/lib\libstdc++.a(eh_alloc.o)
 .gcc_except_table.__cxa_allocate_exception
                0x0000000000000000        0x4 c:/devkitpro/devkitppc/bin/../lib/gcc/powerpc-eabi/12.1.0/../../../../powerpc-eabi/lib\libstdc++.a(eh_alloc.o)
 .text.__cxa_free_exception
                0x0000000000000000       0x4c c:/devkitpro/devkitppc/bin/../lib/gcc/powerpc-eabi/12.1.0/../../../../powerpc-eabi/lib\libstdc++.a(eh_alloc.o)
 .gcc_except_table.__cxa_free_exception
                0x0000000000000000        0x4 c:/devkitpro/devkitppc/bin/../lib/gcc/powerpc-eabi/12.1.0/../../../../powerpc-eabi/lib\libstdc++.a(eh_alloc.o)
 .text.__cxa_allocate_dependent_exception
                0x0000000000000000       0x54 c:/devkitpro/devkitppc/bin/../lib/gcc/powerpc-eabi/12.1.0/../../../../powerpc-eabi/lib\libstdc++.a(eh_alloc.o)
 .gcc_except_table.__cxa_allocate_dependent_exception
                0x0000000000000000        0x4 c:/devkitpro/devkitppc/bin/../lib/gcc/powerpc-eabi/12.1.0/../../../../powerpc-eabi/lib\libstdc++.a(eh_alloc.o)
 .text.__cxa_free_dependent_exception
                0x0000000000000000       0x50 c:/devkitpro/devkitppc/bin/../lib/gcc/powerpc-eabi/12.1.0/../../../../powerpc-eabi/lib\libstdc++.a(eh_alloc.o)
 .gcc_except_table.__cxa_free_dependent_exception
                0x0000000000000000        0x4 c:/devkitpro/devkitppc/bin/../lib/gcc/powerpc-eabi/12.1.0/../../../../powerpc-eabi/lib\libstdc++.a(eh_alloc.o)
 .text.startup._GLOBAL__sub_I__ZN9__gnu_cxx9__freeresEv
                0x0000000000000000       0x80 c:/devkitpro/devkitppc/bin/../lib/gcc/powerpc-eabi/12.1.0/../../../../powerpc-eabi/lib\libstdc++.a(eh_alloc.o)
 .ctors         0x0000000000000000        0x4 c:/devkitpro/devkitppc/bin/../lib/gcc/powerpc-eabi/12.1.0/../../../../powerpc-eabi/lib\libstdc++.a(eh_alloc.o)
 .text.exit._GLOBAL__sub_D__ZN9__gnu_cxx9__freeresEv
                0x0000000000000000       0x38 c:/devkitpro/devkitppc/bin/../lib/gcc/powerpc-eabi/12.1.0/../../../../powerpc-eabi/lib\libstdc++.a(eh_alloc.o)
 .gcc_except_table._GLOBAL__sub_D__ZN9__gnu_cxx9__freeresEv
                0x0000000000000000        0x4 c:/devkitpro/devkitppc/bin/../lib/gcc/powerpc-eabi/12.1.0/../../../../powerpc-eabi/lib\libstdc++.a(eh_alloc.o)
 .dtors         0x0000000000000000        0x4 c:/devkitpro/devkitppc/bin/../lib/gcc/powerpc-eabi/12.1.0/../../../../powerpc-eabi/lib\libstdc++.a(eh_alloc.o)
 .rodata._ZTSN9__gnu_cxx24__concurrence_lock_errorE
                0x0000000000000000       0x27 c:/devkitpro/devkitppc/bin/../lib/gcc/powerpc-eabi/12.1.0/../../../../powerpc-eabi/lib\libstdc++.a(eh_alloc.o)
 .rodata._ZTIN9__gnu_cxx24__concurrence_lock_errorE
                0x0000000000000000        0xc c:/devkitpro/devkitppc/bin/../lib/gcc/powerpc-eabi/12.1.0/../../../../powerpc-eabi/lib\libstdc++.a(eh_alloc.o)
 .rodata._ZTSN9__gnu_cxx26__concurrence_unlock_errorE
                0x0000000000000000       0x29 c:/devkitpro/devkitppc/bin/../lib/gcc/powerpc-eabi/12.1.0/../../../../powerpc-eabi/lib\libstdc++.a(eh_alloc.o)
 .rodata._ZTIN9__gnu_cxx26__concurrence_unlock_errorE
                0x0000000000000000        0xc c:/devkitpro/devkitppc/bin/../lib/gcc/powerpc-eabi/12.1.0/../../../../powerpc-eabi/lib\libstdc++.a(eh_alloc.o)
 .rodata._ZTVN9__gnu_cxx24__concurrence_lock_errorE
                0x0000000000000000       0x14 c:/devkitpro/devkitppc/bin/../lib/gcc/powerpc-eabi/12.1.0/../../../../powerpc-eabi/lib\libstdc++.a(eh_alloc.o)
 .rodata._ZTVN9__gnu_cxx26__concurrence_unlock_errorE
                0x0000000000000000       0x14 c:/devkitpro/devkitppc/bin/../lib/gcc/powerpc-eabi/12.1.0/../../../../powerpc-eabi/lib\libstdc++.a(eh_alloc.o)
 .bss._ZN12_GLOBAL__N_114emergency_poolE
                0x0000000000000000       0x38 c:/devkitpro/devkitppc/bin/../lib/gcc/powerpc-eabi/12.1.0/../../../../powerpc-eabi/lib\libstdc++.a(eh_alloc.o)
 .comment       0x0000000000000000       0x24 c:/devkitpro/devkitppc/bin/../lib/gcc/powerpc-eabi/12.1.0/../../../../powerpc-eabi/lib\libstdc++.a(eh_alloc.o)
 .eh_frame      0x0000000000000000      0x278 c:/devkitpro/devkitppc/bin/../lib/gcc/powerpc-eabi/12.1.0/../../../../powerpc-eabi/lib\libstdc++.a(eh_alloc.o)
 .text          0x0000000000000000        0x0 c:/devkitpro/devkitppc/bin/../lib/gcc/powerpc-eabi/12.1.0/../../../../powerpc-eabi/lib\libstdc++.a(eh_call.o)
 .data          0x0000000000000000        0x0 c:/devkitpro/devkitppc/bin/../lib/gcc/powerpc-eabi/12.1.0/../../../../powerpc-eabi/lib\libstdc++.a(eh_call.o)
 .bss           0x0000000000000000        0x0 c:/devkitpro/devkitppc/bin/../lib/gcc/powerpc-eabi/12.1.0/../../../../powerpc-eabi/lib\libstdc++.a(eh_call.o)
 .eh_frame      0x0000000000000000       0x34 c:/devkitpro/devkitppc/bin/../lib/gcc/powerpc-eabi/12.1.0/../../../../powerpc-eabi/lib\libstdc++.a(eh_call.o)
 .text          0x0000000000000000        0x0 c:/devkitpro/devkitppc/bin/../lib/gcc/powerpc-eabi/12.1.0/../../../../powerpc-eabi/lib\libstdc++.a(eh_catch.o)
 .data          0x0000000000000000        0x0 c:/devkitpro/devkitppc/bin/../lib/gcc/powerpc-eabi/12.1.0/../../../../powerpc-eabi/lib\libstdc++.a(eh_catch.o)
 .bss           0x0000000000000000        0x0 c:/devkitpro/devkitppc/bin/../lib/gcc/powerpc-eabi/12.1.0/../../../../powerpc-eabi/lib\libstdc++.a(eh_catch.o)
 .text.__cxa_get_exception_ptr
                0x0000000000000000        0x8 c:/devkitpro/devkitppc/bin/../lib/gcc/powerpc-eabi/12.1.0/../../../../powerpc-eabi/lib\libstdc++.a(eh_catch.o)
 .text.__cxa_end_catch
                0x0000000000000000       0xc0 c:/devkitpro/devkitppc/bin/../lib/gcc/powerpc-eabi/12.1.0/../../../../powerpc-eabi/lib\libstdc++.a(eh_catch.o)
 .text._ZSt18uncaught_exceptionv
                0x0000000000000000       0x2c c:/devkitpro/devkitppc/bin/../lib/gcc/powerpc-eabi/12.1.0/../../../../powerpc-eabi/lib\libstdc++.a(eh_catch.o)
 .text._ZSt19uncaught_exceptionsv
                0x0000000000000000       0x24 c:/devkitpro/devkitppc/bin/../lib/gcc/powerpc-eabi/12.1.0/../../../../powerpc-eabi/lib\libstdc++.a(eh_catch.o)
 .eh_frame      0x0000000000000000       0xc8 c:/devkitpro/devkitppc/bin/../lib/gcc/powerpc-eabi/12.1.0/../../../../powerpc-eabi/lib\libstdc++.a(eh_catch.o)
 .group         0x0000000000000000        0x8 c:/devkitpro/devkitppc/bin/../lib/gcc/powerpc-eabi/12.1.0/../../../../powerpc-eabi/lib\libstdc++.a(eh_exception.o)
 .group         0x0000000000000000        0xc c:/devkitpro/devkitppc/bin/../lib/gcc/powerpc-eabi/12.1.0/../../../../powerpc-eabi/lib\libstdc++.a(eh_exception.o)
 .group         0x0000000000000000        0x8 c:/devkitpro/devkitppc/bin/../lib/gcc/powerpc-eabi/12.1.0/../../../../powerpc-eabi/lib\libstdc++.a(eh_exception.o)
 .group         0x0000000000000000        0xc c:/devkitpro/devkitppc/bin/../lib/gcc/powerpc-eabi/12.1.0/../../../../powerpc-eabi/lib\libstdc++.a(eh_exception.o)
 .group         0x0000000000000000        0x8 c:/devkitpro/devkitppc/bin/../lib/gcc/powerpc-eabi/12.1.0/../../../../powerpc-eabi/lib\libstdc++.a(eh_exception.o)
 .group         0x0000000000000000        0xc c:/devkitpro/devkitppc/bin/../lib/gcc/powerpc-eabi/12.1.0/../../../../powerpc-eabi/lib\libstdc++.a(eh_exception.o)
 .group         0x0000000000000000        0x8 c:/devkitpro/devkitppc/bin/../lib/gcc/powerpc-eabi/12.1.0/../../../../powerpc-eabi/lib\libstdc++.a(eh_exception.o)
 .group         0x0000000000000000        0xc c:/devkitpro/devkitppc/bin/../lib/gcc/powerpc-eabi/12.1.0/../../../../powerpc-eabi/lib\libstdc++.a(eh_exception.o)
 .group         0x0000000000000000        0xc c:/devkitpro/devkitppc/bin/../lib/gcc/powerpc-eabi/12.1.0/../../../../powerpc-eabi/lib\libstdc++.a(eh_exception.o)
 .group         0x0000000000000000        0xc c:/devkitpro/devkitppc/bin/../lib/gcc/powerpc-eabi/12.1.0/../../../../powerpc-eabi/lib\libstdc++.a(eh_exception.o)
 .group         0x0000000000000000        0xc c:/devkitpro/devkitppc/bin/../lib/gcc/powerpc-eabi/12.1.0/../../../../powerpc-eabi/lib\libstdc++.a(eh_exception.o)
 .group         0x0000000000000000        0xc c:/devkitpro/devkitppc/bin/../lib/gcc/powerpc-eabi/12.1.0/../../../../powerpc-eabi/lib\libstdc++.a(eh_exception.o)
 .text          0x0000000000000000        0x0 c:/devkitpro/devkitppc/bin/../lib/gcc/powerpc-eabi/12.1.0/../../../../powerpc-eabi/lib\libstdc++.a(eh_exception.o)
 .data          0x0000000000000000        0x0 c:/devkitpro/devkitppc/bin/../lib/gcc/powerpc-eabi/12.1.0/../../../../powerpc-eabi/lib\libstdc++.a(eh_exception.o)
 .bss           0x0000000000000000        0x0 c:/devkitpro/devkitppc/bin/../lib/gcc/powerpc-eabi/12.1.0/../../../../powerpc-eabi/lib\libstdc++.a(eh_exception.o)
 .text._ZNSt9exceptionD2Ev
                0x0000000000000000        0x4 c:/devkitpro/devkitppc/bin/../lib/gcc/powerpc-eabi/12.1.0/../../../../powerpc-eabi/lib\libstdc++.a(eh_exception.o)
 .text._ZNSt13bad_exceptionD2Ev
                0x0000000000000000        0x4 c:/devkitpro/devkitppc/bin/../lib/gcc/powerpc-eabi/12.1.0/../../../../powerpc-eabi/lib\libstdc++.a(eh_exception.o)
 .rodata._ZNKSt9exception4whatEv.str1.4
                0x0000000000000000        0xf c:/devkitpro/devkitppc/bin/../lib/gcc/powerpc-eabi/12.1.0/../../../../powerpc-eabi/lib\libstdc++.a(eh_exception.o)
 .text._ZNKSt9exception4whatEv
                0x0000000000000000        0xc c:/devkitpro/devkitppc/bin/../lib/gcc/powerpc-eabi/12.1.0/../../../../powerpc-eabi/lib\libstdc++.a(eh_exception.o)
 .rodata._ZNKSt13bad_exception4whatEv.str1.4
                0x0000000000000000       0x13 c:/devkitpro/devkitppc/bin/../lib/gcc/powerpc-eabi/12.1.0/../../../../powerpc-eabi/lib\libstdc++.a(eh_exception.o)
 .text._ZNKSt13bad_exception4whatEv
                0x0000000000000000        0xc c:/devkitpro/devkitppc/bin/../lib/gcc/powerpc-eabi/12.1.0/../../../../powerpc-eabi/lib\libstdc++.a(eh_exception.o)
 .text._ZNSt9exceptionD0Ev
                0x0000000000000000        0x8 c:/devkitpro/devkitppc/bin/../lib/gcc/powerpc-eabi/12.1.0/../../../../powerpc-eabi/lib\libstdc++.a(eh_exception.o)
 .text._ZNSt13bad_exceptionD0Ev
                0x0000000000000000        0x8 c:/devkitpro/devkitppc/bin/../lib/gcc/powerpc-eabi/12.1.0/../../../../powerpc-eabi/lib\libstdc++.a(eh_exception.o)
 .text._ZN10__cxxabiv115__forced_unwindD2Ev
                0x0000000000000000        0x4 c:/devkitpro/devkitppc/bin/../lib/gcc/powerpc-eabi/12.1.0/../../../../powerpc-eabi/lib\libstdc++.a(eh_exception.o)
 .text._ZN10__cxxabiv115__forced_unwindD0Ev
                0x0000000000000000        0x8 c:/devkitpro/devkitppc/bin/../lib/gcc/powerpc-eabi/12.1.0/../../../../powerpc-eabi/lib\libstdc++.a(eh_exception.o)
 .text._ZN10__cxxabiv119__foreign_exceptionD2Ev
                0x0000000000000000        0x4 c:/devkitpro/devkitppc/bin/../lib/gcc/powerpc-eabi/12.1.0/../../../../powerpc-eabi/lib\libstdc++.a(eh_exception.o)
 .text._ZN10__cxxabiv119__foreign_exceptionD0Ev
                0x0000000000000000        0x8 c:/devkitpro/devkitppc/bin/../lib/gcc/powerpc-eabi/12.1.0/../../../../powerpc-eabi/lib\libstdc++.a(eh_exception.o)
 .text._ZGTtNKSt9exceptionD1Ev
                0x0000000000000000        0x4 c:/devkitpro/devkitppc/bin/../lib/gcc/powerpc-eabi/12.1.0/../../../../powerpc-eabi/lib\libstdc++.a(eh_exception.o)
 .text._ZGTtNKSt13bad_exceptionD1Ev
                0x0000000000000000        0x4 c:/devkitpro/devkitppc/bin/../lib/gcc/powerpc-eabi/12.1.0/../../../../powerpc-eabi/lib\libstdc++.a(eh_exception.o)
 .rodata._ZTSSt9exception
                0x0000000000000000        0xd c:/devkitpro/devkitppc/bin/../lib/gcc/powerpc-eabi/12.1.0/../../../../powerpc-eabi/lib\libstdc++.a(eh_exception.o)
 .sdata._ZTISt9exception
                0x0000000000000000        0x8 c:/devkitpro/devkitppc/bin/../lib/gcc/powerpc-eabi/12.1.0/../../../../powerpc-eabi/lib\libstdc++.a(eh_exception.o)
 .rodata._ZTSSt13bad_exception
                0x0000000000000000       0x12 c:/devkitpro/devkitppc/bin/../lib/gcc/powerpc-eabi/12.1.0/../../../../powerpc-eabi/lib\libstdc++.a(eh_exception.o)
 .rodata._ZTISt13bad_exception
                0x0000000000000000        0xc c:/devkitpro/devkitppc/bin/../lib/gcc/powerpc-eabi/12.1.0/../../../../powerpc-eabi/lib\libstdc++.a(eh_exception.o)
 .rodata._ZTVSt9exception
                0x0000000000000000       0x14 c:/devkitpro/devkitppc/bin/../lib/gcc/powerpc-eabi/12.1.0/../../../../powerpc-eabi/lib\libstdc++.a(eh_exception.o)
 .rodata._ZTVSt13bad_exception
                0x0000000000000000       0x14 c:/devkitpro/devkitppc/bin/../lib/gcc/powerpc-eabi/12.1.0/../../../../powerpc-eabi/lib\libstdc++.a(eh_exception.o)
 .rodata._ZTVN10__cxxabiv115__forced_unwindE
                0x0000000000000000       0x14 c:/devkitpro/devkitppc/bin/../lib/gcc/powerpc-eabi/12.1.0/../../../../powerpc-eabi/lib\libstdc++.a(eh_exception.o)
 .rodata._ZTVN10__cxxabiv119__foreign_exceptionE
                0x0000000000000000       0x14 c:/devkitpro/devkitppc/bin/../lib/gcc/powerpc-eabi/12.1.0/../../../../powerpc-eabi/lib\libstdc++.a(eh_exception.o)
 .eh_frame      0x0000000000000000      0x104 c:/devkitpro/devkitppc/bin/../lib/gcc/powerpc-eabi/12.1.0/../../../../powerpc-eabi/lib\libstdc++.a(eh_exception.o)
 .text          0x0000000000000000        0x0 c:/devkitpro/devkitppc/bin/../lib/gcc/powerpc-eabi/12.1.0/../../../../powerpc-eabi/lib\libstdc++.a(eh_globals.o)
 .data          0x0000000000000000        0x0 c:/devkitpro/devkitppc/bin/../lib/gcc/powerpc-eabi/12.1.0/../../../../powerpc-eabi/lib\libstdc++.a(eh_globals.o)
 .bss           0x0000000000000000        0x0 c:/devkitpro/devkitppc/bin/../lib/gcc/powerpc-eabi/12.1.0/../../../../powerpc-eabi/lib\libstdc++.a(eh_globals.o)
 .text._ZL15eh_globals_dtorPv
                0x0000000000000000       0x68 c:/devkitpro/devkitppc/bin/../lib/gcc/powerpc-eabi/12.1.0/../../../../powerpc-eabi/lib\libstdc++.a(eh_globals.o)
 .text.__cxa_get_globals_fast
                0x0000000000000000       0x4c c:/devkitpro/devkitppc/bin/../lib/gcc/powerpc-eabi/12.1.0/../../../../powerpc-eabi/lib\libstdc++.a(eh_globals.o)
 .gcc_except_table.__cxa_get_globals_fast
                0x0000000000000000        0x4 c:/devkitpro/devkitppc/bin/../lib/gcc/powerpc-eabi/12.1.0/../../../../powerpc-eabi/lib\libstdc++.a(eh_globals.o)
 .text.startup._GLOBAL__sub_I___cxa_get_globals_fast
                0x0000000000000000       0x60 c:/devkitpro/devkitppc/bin/../lib/gcc/powerpc-eabi/12.1.0/../../../../powerpc-eabi/lib\libstdc++.a(eh_globals.o)
 .ctors         0x0000000000000000        0x4 c:/devkitpro/devkitppc/bin/../lib/gcc/powerpc-eabi/12.1.0/../../../../powerpc-eabi/lib\libstdc++.a(eh_globals.o)
 .text.exit._GLOBAL__sub_D___cxa_get_globals_fast
                0x0000000000000000       0x40 c:/devkitpro/devkitppc/bin/../lib/gcc/powerpc-eabi/12.1.0/../../../../powerpc-eabi/lib\libstdc++.a(eh_globals.o)
 .gcc_except_table._GLOBAL__sub_D___cxa_get_globals_fast
                0x0000000000000000        0x4 c:/devkitpro/devkitppc/bin/../lib/gcc/powerpc-eabi/12.1.0/../../../../powerpc-eabi/lib\libstdc++.a(eh_globals.o)
 .dtors         0x0000000000000000        0x4 c:/devkitpro/devkitppc/bin/../lib/gcc/powerpc-eabi/12.1.0/../../../../powerpc-eabi/lib\libstdc++.a(eh_globals.o)
 .eh_frame      0x0000000000000000      0x114 c:/devkitpro/devkitppc/bin/../lib/gcc/powerpc-eabi/12.1.0/../../../../powerpc-eabi/lib\libstdc++.a(eh_globals.o)
 .text          0x0000000000000000        0x0 c:/devkitpro/devkitppc/bin/../lib/gcc/powerpc-eabi/12.1.0/../../../../powerpc-eabi/lib\libstdc++.a(eh_term_handler.o)
 .data          0x0000000000000000        0x0 c:/devkitpro/devkitppc/bin/../lib/gcc/powerpc-eabi/12.1.0/../../../../powerpc-eabi/lib\libstdc++.a(eh_term_handler.o)
 .bss           0x0000000000000000        0x0 c:/devkitpro/devkitppc/bin/../lib/gcc/powerpc-eabi/12.1.0/../../../../powerpc-eabi/lib\libstdc++.a(eh_term_handler.o)
 .group         0x0000000000000000        0x8 c:/devkitpro/devkitppc/bin/../lib/gcc/powerpc-eabi/12.1.0/../../../../powerpc-eabi/lib\libstdc++.a(si_class_type_info.o)
 .group         0x0000000000000000        0xc c:/devkitpro/devkitppc/bin/../lib/gcc/powerpc-eabi/12.1.0/../../../../powerpc-eabi/lib\libstdc++.a(si_class_type_info.o)
 .group         0x0000000000000000        0xc c:/devkitpro/devkitppc/bin/../lib/gcc/powerpc-eabi/12.1.0/../../../../powerpc-eabi/lib\libstdc++.a(si_class_type_info.o)
 .text          0x0000000000000000        0x0 c:/devkitpro/devkitppc/bin/../lib/gcc/powerpc-eabi/12.1.0/../../../../powerpc-eabi/lib\libstdc++.a(si_class_type_info.o)
 .data          0x0000000000000000        0x0 c:/devkitpro/devkitppc/bin/../lib/gcc/powerpc-eabi/12.1.0/../../../../powerpc-eabi/lib\libstdc++.a(si_class_type_info.o)
 .bss           0x0000000000000000        0x0 c:/devkitpro/devkitppc/bin/../lib/gcc/powerpc-eabi/12.1.0/../../../../powerpc-eabi/lib\libstdc++.a(si_class_type_info.o)
 .eh_frame      0x0000000000000000      0x154 c:/devkitpro/devkitppc/bin/../lib/gcc/powerpc-eabi/12.1.0/../../../../powerpc-eabi/lib\libstdc++.a(si_class_type_info.o)
 .group         0x0000000000000000        0x8 c:/devkitpro/devkitppc/bin/../lib/gcc/powerpc-eabi/12.1.0/../../../../powerpc-eabi/lib\libstdc++.a(tinfo.o)
 .group         0x0000000000000000        0xc c:/devkitpro/devkitppc/bin/../lib/gcc/powerpc-eabi/12.1.0/../../../../powerpc-eabi/lib\libstdc++.a(tinfo.o)
 .group         0x0000000000000000        0xc c:/devkitpro/devkitppc/bin/../lib/gcc/powerpc-eabi/12.1.0/../../../../powerpc-eabi/lib\libstdc++.a(tinfo.o)
 .text          0x0000000000000000        0x0 c:/devkitpro/devkitppc/bin/../lib/gcc/powerpc-eabi/12.1.0/../../../../powerpc-eabi/lib\libstdc++.a(tinfo.o)
 .data          0x0000000000000000        0x0 c:/devkitpro/devkitppc/bin/../lib/gcc/powerpc-eabi/12.1.0/../../../../powerpc-eabi/lib\libstdc++.a(tinfo.o)
 .bss           0x0000000000000000        0x0 c:/devkitpro/devkitppc/bin/../lib/gcc/powerpc-eabi/12.1.0/../../../../powerpc-eabi/lib\libstdc++.a(tinfo.o)
 .text._ZNKSt9type_info11__do_upcastEPKN10__cxxabiv117__class_type_infoEPPv
                0x0000000000000000        0x8 c:/devkitpro/devkitppc/bin/../lib/gcc/powerpc-eabi/12.1.0/../../../../powerpc-eabi/lib\libstdc++.a(tinfo.o)
 .text._ZNSt9type_infoD0Ev
                0x0000000000000000        0x8 c:/devkitpro/devkitppc/bin/../lib/gcc/powerpc-eabi/12.1.0/../../../../powerpc-eabi/lib\libstdc++.a(tinfo.o)
 .text._ZNKSt9type_info10__do_catchEPKS_PPvj
                0x0000000000000000       0x68 c:/devkitpro/devkitppc/bin/../lib/gcc/powerpc-eabi/12.1.0/../../../../powerpc-eabi/lib\libstdc++.a(tinfo.o)
 .rodata._ZTVSt9type_info
                0x0000000000000000       0x20 c:/devkitpro/devkitppc/bin/../lib/gcc/powerpc-eabi/12.1.0/../../../../powerpc-eabi/lib\libstdc++.a(tinfo.o)
 .eh_frame      0x0000000000000000       0x84 c:/devkitpro/devkitppc/bin/../lib/gcc/powerpc-eabi/12.1.0/../../../../powerpc-eabi/lib\libstdc++.a(tinfo.o)
 .group         0x0000000000000000        0x8 c:/devkitpro/devkitppc/bin/../lib/gcc/powerpc-eabi/12.1.0/../../../../powerpc-eabi/lib\libstdc++.a(class_type_info.o)
 .group         0x0000000000000000        0xc c:/devkitpro/devkitppc/bin/../lib/gcc/powerpc-eabi/12.1.0/../../../../powerpc-eabi/lib\libstdc++.a(class_type_info.o)
 .group         0x0000000000000000        0xc c:/devkitpro/devkitppc/bin/../lib/gcc/powerpc-eabi/12.1.0/../../../../powerpc-eabi/lib\libstdc++.a(class_type_info.o)
 .text          0x0000000000000000        0x0 c:/devkitpro/devkitppc/bin/../lib/gcc/powerpc-eabi/12.1.0/../../../../powerpc-eabi/lib\libstdc++.a(class_type_info.o)
 .data          0x0000000000000000        0x0 c:/devkitpro/devkitppc/bin/../lib/gcc/powerpc-eabi/12.1.0/../../../../powerpc-eabi/lib\libstdc++.a(class_type_info.o)
 .bss           0x0000000000000000        0x0 c:/devkitpro/devkitppc/bin/../lib/gcc/powerpc-eabi/12.1.0/../../../../powerpc-eabi/lib\libstdc++.a(class_type_info.o)
 .eh_frame      0x0000000000000000      0x168 c:/devkitpro/devkitppc/bin/../lib/gcc/powerpc-eabi/12.1.0/../../../../powerpc-eabi/lib\libstdc++.a(class_type_info.o)
 .text          0x0000000000000000        0x0 c:/devkitpro/devkitppc/bin/../lib/gcc/powerpc-eabi/12.1.0\libgcc.a(gthr-dkp.o)
 .data          0x0000000000000000        0x0 c:/devkitpro/devkitppc/bin/../lib/gcc/powerpc-eabi/12.1.0\libgcc.a(gthr-dkp.o)
 .bss           0x0000000000000000        0x0 c:/devkitpro/devkitppc/bin/../lib/gcc/powerpc-eabi/12.1.0\libgcc.a(gthr-dkp.o)
 .text.__gthread_active_p
                0x0000000000000000       0x1c c:/devkitpro/devkitppc/bin/../lib/gcc/powerpc-eabi/12.1.0\libgcc.a(gthr-dkp.o)
 .text.__gthread_create
                0x0000000000000000       0x1c c:/devkitpro/devkitppc/bin/../lib/gcc/powerpc-eabi/12.1.0\libgcc.a(gthr-dkp.o)
 .text.__gthread_join
                0x0000000000000000       0x1c c:/devkitpro/devkitppc/bin/../lib/gcc/powerpc-eabi/12.1.0\libgcc.a(gthr-dkp.o)
 .text.__gthread_detach
                0x0000000000000000       0x1c c:/devkitpro/devkitppc/bin/../lib/gcc/powerpc-eabi/12.1.0\libgcc.a(gthr-dkp.o)
 .text.__gthread_equal
                0x0000000000000000       0x1c c:/devkitpro/devkitppc/bin/../lib/gcc/powerpc-eabi/12.1.0\libgcc.a(gthr-dkp.o)
 .text.__gthread_self
                0x0000000000000000       0x1c c:/devkitpro/devkitppc/bin/../lib/gcc/powerpc-eabi/12.1.0\libgcc.a(gthr-dkp.o)
 .text.__gthread_yield
                0x0000000000000000       0x1c c:/devkitpro/devkitppc/bin/../lib/gcc/powerpc-eabi/12.1.0\libgcc.a(gthr-dkp.o)
 .text.__gthread_key_create
                0x0000000000000000       0x1c c:/devkitpro/devkitppc/bin/../lib/gcc/powerpc-eabi/12.1.0\libgcc.a(gthr-dkp.o)
 .text.__gthread_key_delete
                0x0000000000000000       0x44 c:/devkitpro/devkitppc/bin/../lib/gcc/powerpc-eabi/12.1.0\libgcc.a(gthr-dkp.o)
 .text.__gthread_mutex_destroy
                0x0000000000000000       0x1c c:/devkitpro/devkitppc/bin/../lib/gcc/powerpc-eabi/12.1.0\libgcc.a(gthr-dkp.o)
 .text.__gthread_mutex_trylock
                0x0000000000000000       0x1c c:/devkitpro/devkitppc/bin/../lib/gcc/powerpc-eabi/12.1.0\libgcc.a(gthr-dkp.o)
 .text.__gthread_recursive_mutex_init_function
                0x0000000000000000       0x1c c:/devkitpro/devkitppc/bin/../lib/gcc/powerpc-eabi/12.1.0\libgcc.a(gthr-dkp.o)
 .text.__gthread_recursive_mutex_lock
                0x0000000000000000       0x1c c:/devkitpro/devkitppc/bin/../lib/gcc/powerpc-eabi/12.1.0\libgcc.a(gthr-dkp.o)
 .text.__gthread_recursive_mutex_trylock
                0x0000000000000000       0x1c c:/devkitpro/devkitppc/bin/../lib/gcc/powerpc-eabi/12.1.0\libgcc.a(gthr-dkp.o)
 .text.__gthread_recursive_mutex_unlock
                0x0000000000000000       0x1c c:/devkitpro/devkitppc/bin/../lib/gcc/powerpc-eabi/12.1.0\libgcc.a(gthr-dkp.o)
 .text.__gthread_recursive_mutex_destroy
                0x0000000000000000       0x1c c:/devkitpro/devkitppc/bin/../lib/gcc/powerpc-eabi/12.1.0\libgcc.a(gthr-dkp.o)
 .text.__gthread_cond_init_function
                0x0000000000000000       0x14 c:/devkitpro/devkitppc/bin/../lib/gcc/powerpc-eabi/12.1.0\libgcc.a(gthr-dkp.o)
 .text.__gthread_cond_broadcast
                0x0000000000000000       0x1c c:/devkitpro/devkitppc/bin/../lib/gcc/powerpc-eabi/12.1.0\libgcc.a(gthr-dkp.o)
 .text.__gthread_cond_signal
                0x0000000000000000       0x1c c:/devkitpro/devkitppc/bin/../lib/gcc/powerpc-eabi/12.1.0\libgcc.a(gthr-dkp.o)
 .text.__gthread_cond_wait
                0x0000000000000000       0x1c c:/devkitpro/devkitppc/bin/../lib/gcc/powerpc-eabi/12.1.0\libgcc.a(gthr-dkp.o)
 .text.__gthread_cond_timedwait
                0x0000000000000000       0x1c c:/devkitpro/devkitppc/bin/../lib/gcc/powerpc-eabi/12.1.0\libgcc.a(gthr-dkp.o)
 .text.__gthread_cond_wait_recursive
                0x0000000000000000       0x1c c:/devkitpro/devkitppc/bin/../lib/gcc/powerpc-eabi/12.1.0\libgcc.a(gthr-dkp.o)
 .text.__gthread_cond_destroy
                0x0000000000000000       0x1c c:/devkitpro/devkitppc/bin/../lib/gcc/powerpc-eabi/12.1.0\libgcc.a(gthr-dkp.o)
 .eh_frame      0x0000000000000000      0x27c c:/devkitpro/devkitppc/bin/../lib/gcc/powerpc-eabi/12.1.0\libgcc.a(gthr-dkp.o)
 .data          0x0000000000000000        0x0 c:/devkitpro/devkitppc/bin/../lib/gcc/powerpc-eabi/12.1.0\libgcc.a(crtresxgpr.o)
 .bss           0x0000000000000000        0x0 c:/devkitpro/devkitppc/bin/../lib/gcc/powerpc-eabi/12.1.0\libgcc.a(crtresxgpr.o)
 .eh_frame      0x0000000000000000       0x7c c:/devkitpro/devkitppc/bin/../lib/gcc/powerpc-eabi/12.1.0\libgcc.a(crtresxgpr.o)
 .text          0x0000000000000000        0x0 c:/devkitpro/devkitppc/bin/../lib/gcc/powerpc-eabi/12.1.0\libgcc.a(unwind-dw2.o)
 .data          0x0000000000000000        0x0 c:/devkitpro/devkitppc/bin/../lib/gcc/powerpc-eabi/12.1.0\libgcc.a(unwind-dw2.o)
 .bss           0x0000000000000000        0x0 c:/devkitpro/devkitppc/bin/../lib/gcc/powerpc-eabi/12.1.0\libgcc.a(unwind-dw2.o)
 .text._Unwind_GetGR
                0x0000000000000000       0x60 c:/devkitpro/devkitppc/bin/../lib/gcc/powerpc-eabi/12.1.0\libgcc.a(unwind-dw2.o)
 .text._Unwind_GetCFA
                0x0000000000000000        0x8 c:/devkitpro/devkitppc/bin/../lib/gcc/powerpc-eabi/12.1.0\libgcc.a(unwind-dw2.o)
 .text._Unwind_GetIP
                0x0000000000000000        0x8 c:/devkitpro/devkitppc/bin/../lib/gcc/powerpc-eabi/12.1.0\libgcc.a(unwind-dw2.o)
 .text._Unwind_FindEnclosingFunction
                0x0000000000000000       0x34 c:/devkitpro/devkitppc/bin/../lib/gcc/powerpc-eabi/12.1.0\libgcc.a(unwind-dw2.o)
 .text.__frame_state_for
                0x0000000000000000      0x110 c:/devkitpro/devkitppc/bin/../lib/gcc/powerpc-eabi/12.1.0\libgcc.a(unwind-dw2.o)
 .text._Unwind_RaiseException
                0x0000000000000000      0x300 c:/devkitpro/devkitppc/bin/../lib/gcc/powerpc-eabi/12.1.0\libgcc.a(unwind-dw2.o)
 .text._Unwind_ForcedUnwind
                0x0000000000000000      0x1dc c:/devkitpro/devkitppc/bin/../lib/gcc/powerpc-eabi/12.1.0\libgcc.a(unwind-dw2.o)
 .text._Unwind_Resume_or_Rethrow
                0x0000000000000000      0x1e0 c:/devkitpro/devkitppc/bin/../lib/gcc/powerpc-eabi/12.1.0\libgcc.a(unwind-dw2.o)
 .text._Unwind_DeleteException
                0x0000000000000000       0x1c c:/devkitpro/devkitppc/bin/../lib/gcc/powerpc-eabi/12.1.0\libgcc.a(unwind-dw2.o)
 .text._Unwind_Backtrace
                0x0000000000000000      0x24c c:/devkitpro/devkitppc/bin/../lib/gcc/powerpc-eabi/12.1.0\libgcc.a(unwind-dw2.o)
 .eh_frame      0x0000000000000000      0x79c c:/devkitpro/devkitppc/bin/../lib/gcc/powerpc-eabi/12.1.0\libgcc.a(unwind-dw2.o)
 .text          0x0000000000000000        0x0 c:/devkitpro/devkitppc/bin/../lib/gcc/powerpc-eabi/12.1.0\libgcc.a(unwind-dw2-fde.o)
 .data          0x0000000000000000        0x0 c:/devkitpro/devkitppc/bin/../lib/gcc/powerpc-eabi/12.1.0\libgcc.a(unwind-dw2-fde.o)
 .bss           0x0000000000000000        0x0 c:/devkitpro/devkitppc/bin/../lib/gcc/powerpc-eabi/12.1.0\libgcc.a(unwind-dw2-fde.o)
 .text.__deregister_frame_info_bases.part.0
                0x0000000000000000      0x15c c:/devkitpro/devkitppc/bin/../lib/gcc/powerpc-eabi/12.1.0\libgcc.a(unwind-dw2-fde.o)
 .text.__register_frame_info_bases
                0x0000000000000000       0x98 c:/devkitpro/devkitppc/bin/../lib/gcc/powerpc-eabi/12.1.0\libgcc.a(unwind-dw2-fde.o)
 .text.__register_frame_info
                0x0000000000000000       0x9c c:/devkitpro/devkitppc/bin/../lib/gcc/powerpc-eabi/12.1.0\libgcc.a(unwind-dw2-fde.o)
 .text.__register_frame
                0x0000000000000000       0xa0 c:/devkitpro/devkitppc/bin/../lib/gcc/powerpc-eabi/12.1.0\libgcc.a(unwind-dw2-fde.o)
 .text.__register_frame_info_table_bases
                0x0000000000000000       0x84 c:/devkitpro/devkitppc/bin/../lib/gcc/powerpc-eabi/12.1.0\libgcc.a(unwind-dw2-fde.o)
 .text.__register_frame_info_table
                0x0000000000000000       0x88 c:/devkitpro/devkitppc/bin/../lib/gcc/powerpc-eabi/12.1.0\libgcc.a(unwind-dw2-fde.o)
 .text.__register_frame_table
                0x0000000000000000       0x94 c:/devkitpro/devkitppc/bin/../lib/gcc/powerpc-eabi/12.1.0\libgcc.a(unwind-dw2-fde.o)
 .text.__deregister_frame_info_bases
                0x0000000000000000       0x20 c:/devkitpro/devkitppc/bin/../lib/gcc/powerpc-eabi/12.1.0\libgcc.a(unwind-dw2-fde.o)
 .text.__deregister_frame_info
                0x0000000000000000       0x20 c:/devkitpro/devkitppc/bin/../lib/gcc/powerpc-eabi/12.1.0\libgcc.a(unwind-dw2-fde.o)
 .text.__deregister_frame
                0x0000000000000000       0x2c c:/devkitpro/devkitppc/bin/../lib/gcc/powerpc-eabi/12.1.0\libgcc.a(unwind-dw2-fde.o)
 .eh_frame      0x0000000000000000      0x7c4 c:/devkitpro/devkitppc/bin/../lib/gcc/powerpc-eabi/12.1.0\libgcc.a(unwind-dw2-fde.o)
 .text          0x0000000000000000        0x0 c:/devkitpro/devkitppc/bin/../lib/gcc/powerpc-eabi/12.1.0/../../../../powerpc-eabi/lib\libsysbase.a(abort.o)
 .data          0x0000000000000000        0x0 c:/devkitpro/devkitppc/bin/../lib/gcc/powerpc-eabi/12.1.0/../../../../powerpc-eabi/lib\libsysbase.a(abort.o)
 .bss           0x0000000000000000        0x0 c:/devkitpro/devkitppc/bin/../lib/gcc/powerpc-eabi/12.1.0/../../../../powerpc-eabi/lib\libsysbase.a(abort.o)
 .eh_frame      0x0000000000000000       0x2c c:/devkitpro/devkitppc/bin/../lib/gcc/powerpc-eabi/12.1.0/../../../../powerpc-eabi/lib\libsysbase.a(abort.o)
 .text          0x0000000000000000        0x0 c:/devkitpro/devkitppc/bin/../lib/gcc/powerpc-eabi/12.1.0/../../../../powerpc-eabi/lib\libsysbase.a(_exit.o)
 .data          0x0000000000000000        0x0 c:/devkitpro/devkitppc/bin/../lib/gcc/powerpc-eabi/12.1.0/../../../../powerpc-eabi/lib\libsysbase.a(_exit.o)
 .bss           0x0000000000000000        0x0 c:/devkitpro/devkitppc/bin/../lib/gcc/powerpc-eabi/12.1.0/../../../../powerpc-eabi/lib\libsysbase.a(_exit.o)
 .eh_frame      0x0000000000000000       0x34 c:/devkitpro/devkitppc/bin/../lib/gcc/powerpc-eabi/12.1.0/../../../../powerpc-eabi/lib\libsysbase.a(_exit.o)
 .text          0x0000000000000000        0x0 c:/devkitpro/devkitppc/bin/../lib/gcc/powerpc-eabi/12.1.0/../../../../powerpc-eabi/lib\libc.a(lib_a-malloc.o)
 .data          0x0000000000000000        0x0 c:/devkitpro/devkitppc/bin/../lib/gcc/powerpc-eabi/12.1.0/../../../../powerpc-eabi/lib\libc.a(lib_a-malloc.o)
 .bss           0x0000000000000000        0x0 c:/devkitpro/devkitppc/bin/../lib/gcc/powerpc-eabi/12.1.0/../../../../powerpc-eabi/lib\libc.a(lib_a-malloc.o)
 .eh_frame      0x0000000000000000       0x3c c:/devkitpro/devkitppc/bin/../lib/gcc/powerpc-eabi/12.1.0/../../../../powerpc-eabi/lib\libc.a(lib_a-malloc.o)
 .text          0x0000000000000000        0x0 c:/devkitpro/devkitppc/bin/../lib/gcc/powerpc-eabi/12.1.0/../../../../powerpc-eabi/lib\libc.a(lib_a-mallocr.o)
 .data          0x0000000000000000        0x0 c:/devkitpro/devkitppc/bin/../lib/gcc/powerpc-eabi/12.1.0/../../../../powerpc-eabi/lib\libc.a(lib_a-mallocr.o)
 .bss           0x0000000000000000        0x0 c:/devkitpro/devkitppc/bin/../lib/gcc/powerpc-eabi/12.1.0/../../../../powerpc-eabi/lib\libc.a(lib_a-mallocr.o)
 .eh_frame      0x0000000000000000       0xf8 c:/devkitpro/devkitppc/bin/../lib/gcc/powerpc-eabi/12.1.0/../../../../powerpc-eabi/lib\libc.a(lib_a-mallocr.o)
 .text          0x0000000000000000        0x0 c:/devkitpro/devkitppc/bin/../lib/gcc/powerpc-eabi/12.1.0/../../../../powerpc-eabi/lib\libc.a(lib_a-memcpy.o)
 .data          0x0000000000000000        0x0 c:/devkitpro/devkitppc/bin/../lib/gcc/powerpc-eabi/12.1.0/../../../../powerpc-eabi/lib\libc.a(lib_a-memcpy.o)
 .bss           0x0000000000000000        0x0 c:/devkitpro/devkitppc/bin/../lib/gcc/powerpc-eabi/12.1.0/../../../../powerpc-eabi/lib\libc.a(lib_a-memcpy.o)
 .eh_frame      0x0000000000000000       0x28 c:/devkitpro/devkitppc/bin/../lib/gcc/powerpc-eabi/12.1.0/../../../../powerpc-eabi/lib\libc.a(lib_a-memcpy.o)
 .text          0x0000000000000000        0x0 c:/devkitpro/devkitppc/bin/../lib/gcc/powerpc-eabi/12.1.0/../../../../powerpc-eabi/lib\libc.a(lib_a-memset.o)
 .data          0x0000000000000000        0x0 c:/devkitpro/devkitppc/bin/../lib/gcc/powerpc-eabi/12.1.0/../../../../powerpc-eabi/lib\libc.a(lib_a-memset.o)
 .bss           0x0000000000000000        0x0 c:/devkitpro/devkitppc/bin/../lib/gcc/powerpc-eabi/12.1.0/../../../../powerpc-eabi/lib\libc.a(lib_a-memset.o)
 .eh_frame      0x0000000000000000       0x28 c:/devkitpro/devkitppc/bin/../lib/gcc/powerpc-eabi/12.1.0/../../../../powerpc-eabi/lib\libc.a(lib_a-memset.o)
 .text          0x0000000000000000        0x0 c:/devkitpro/devkitppc/bin/../lib/gcc/powerpc-eabi/12.1.0/../../../../powerpc-eabi/lib\libc.a(lib_a-strcmp.o)
 .data          0x0000000000000000        0x0 c:/devkitpro/devkitppc/bin/../lib/gcc/powerpc-eabi/12.1.0/../../../../powerpc-eabi/lib\libc.a(lib_a-strcmp.o)
 .bss           0x0000000000000000        0x0 c:/devkitpro/devkitppc/bin/../lib/gcc/powerpc-eabi/12.1.0/../../../../powerpc-eabi/lib\libc.a(lib_a-strcmp.o)
 .eh_frame      0x0000000000000000       0x28 c:/devkitpro/devkitppc/bin/../lib/gcc/powerpc-eabi/12.1.0/../../../../powerpc-eabi/lib\libc.a(lib_a-strcmp.o)
 .text          0x0000000000000000        0x0 c:/devkitpro/devkitppc/bin/../lib/gcc/powerpc-eabi/12.1.0/../../../../powerpc-eabi/lib\libc.a(lib_a-strlen.o)
 .data          0x0000000000000000        0x0 c:/devkitpro/devkitppc/bin/../lib/gcc/powerpc-eabi/12.1.0/../../../../powerpc-eabi/lib\libc.a(lib_a-strlen.o)
 .bss           0x0000000000000000        0x0 c:/devkitpro/devkitppc/bin/../lib/gcc/powerpc-eabi/12.1.0/../../../../powerpc-eabi/lib\libc.a(lib_a-strlen.o)
 .eh_frame      0x0000000000000000       0x28 c:/devkitpro/devkitppc/bin/../lib/gcc/powerpc-eabi/12.1.0/../../../../powerpc-eabi/lib\libc.a(lib_a-strlen.o)
 .text          0x0000000000000000        0x0 c:/devkitpro/devkitppc/bin/../lib/gcc/powerpc-eabi/12.1.0/../../../../powerpc-eabi/lib\libc.a(lib_a-syswrite.o)
 .data          0x0000000000000000        0x0 c:/devkitpro/devkitppc/bin/../lib/gcc/powerpc-eabi/12.1.0/../../../../powerpc-eabi/lib\libc.a(lib_a-syswrite.o)
 .bss           0x0000000000000000        0x0 c:/devkitpro/devkitppc/bin/../lib/gcc/powerpc-eabi/12.1.0/../../../../powerpc-eabi/lib\libc.a(lib_a-syswrite.o)
 .eh_frame      0x0000000000000000       0x28 c:/devkitpro/devkitppc/bin/../lib/gcc/powerpc-eabi/12.1.0/../../../../powerpc-eabi/lib\libc.a(lib_a-syswrite.o)
 .text          0x0000000000000000        0x0 c:/devkitpro/devkitppc/bin/../lib/gcc/powerpc-eabi/12.1.0/../../../../powerpc-eabi/lib\libc.a(lib_a-freer.o)
 .data          0x0000000000000000        0x0 c:/devkitpro/devkitppc/bin/../lib/gcc/powerpc-eabi/12.1.0/../../../../powerpc-eabi/lib\libc.a(lib_a-freer.o)
 .bss           0x0000000000000000        0x0 c:/devkitpro/devkitppc/bin/../lib/gcc/powerpc-eabi/12.1.0/../../../../powerpc-eabi/lib\libc.a(lib_a-freer.o)
 .eh_frame      0x0000000000000000       0xa0 c:/devkitpro/devkitppc/bin/../lib/gcc/powerpc-eabi/12.1.0/../../../../powerpc-eabi/lib\libc.a(lib_a-freer.o)
 .text          0x0000000000000000        0x0 c:/devkitpro/devkitppc/bin/../lib/gcc/powerpc-eabi/12.1.0/../../../../powerpc-eabi/lib\libc.a(lib_a-impure.o)
 .data          0x0000000000000000        0x0 c:/devkitpro/devkitppc/bin/../lib/gcc/powerpc-eabi/12.1.0/../../../../powerpc-eabi/lib\libc.a(lib_a-impure.o)
 .bss           0x0000000000000000        0x0 c:/devkitpro/devkitppc/bin/../lib/gcc/powerpc-eabi/12.1.0/../../../../powerpc-eabi/lib\libc.a(lib_a-impure.o)
 .text          0x0000000000000000        0x0 c:/devkitpro/devkitppc/bin/../lib/gcc/powerpc-eabi/12.1.0/../../../../powerpc-eabi/lib\libsysbase.a(sbrk.o)
 .data          0x0000000000000000        0x0 c:/devkitpro/devkitppc/bin/../lib/gcc/powerpc-eabi/12.1.0/../../../../powerpc-eabi/lib\libsysbase.a(sbrk.o)
 .bss           0x0000000000000000        0x0 c:/devkitpro/devkitppc/bin/../lib/gcc/powerpc-eabi/12.1.0/../../../../powerpc-eabi/lib\libsysbase.a(sbrk.o)
 .eh_frame      0x0000000000000000       0x28 c:/devkitpro/devkitppc/bin/../lib/gcc/powerpc-eabi/12.1.0/../../../../powerpc-eabi/lib\libsysbase.a(sbrk.o)
 .text          0x0000000000000000        0x0 c:/devkitpro/devkitppc/bin/../lib/gcc/powerpc-eabi/12.1.0/../../../../powerpc-eabi/lib\libsysbase.a(write.o)
 .data          0x0000000000000000        0x0 c:/devkitpro/devkitppc/bin/../lib/gcc/powerpc-eabi/12.1.0/../../../../powerpc-eabi/lib\libsysbase.a(write.o)
 .bss           0x0000000000000000        0x0 c:/devkitpro/devkitppc/bin/../lib/gcc/powerpc-eabi/12.1.0/../../../../powerpc-eabi/lib\libsysbase.a(write.o)
 .eh_frame      0x0000000000000000       0x4c c:/devkitpro/devkitppc/bin/../lib/gcc/powerpc-eabi/12.1.0/../../../../powerpc-eabi/lib\libsysbase.a(write.o)
 .text          0x0000000000000000        0x0 c:/devkitpro/devkitppc/bin/../lib/gcc/powerpc-eabi/12.1.0/../../../../powerpc-eabi/lib\libsysbase.a(handle_manager.o)
 .data          0x0000000000000000        0x0 c:/devkitpro/devkitppc/bin/../lib/gcc/powerpc-eabi/12.1.0/../../../../powerpc-eabi/lib\libsysbase.a(handle_manager.o)
 .bss           0x0000000000000000        0x0 c:/devkitpro/devkitppc/bin/../lib/gcc/powerpc-eabi/12.1.0/../../../../powerpc-eabi/lib\libsysbase.a(handle_manager.o)
 .text.__free_handle
                0x0000000000000000       0x3c c:/devkitpro/devkitppc/bin/../lib/gcc/powerpc-eabi/12.1.0/../../../../powerpc-eabi/lib\libsysbase.a(handle_manager.o)
 .text.__release_handle
                0x0000000000000000       0xe4 c:/devkitpro/devkitppc/bin/../lib/gcc/powerpc-eabi/12.1.0/../../../../powerpc-eabi/lib\libsysbase.a(handle_manager.o)
 .text.__alloc_handle
                0x0000000000000000      0x124 c:/devkitpro/devkitppc/bin/../lib/gcc/powerpc-eabi/12.1.0/../../../../powerpc-eabi/lib\libsysbase.a(handle_manager.o)
 .text.dup      0x0000000000000000      0x100 c:/devkitpro/devkitppc/bin/../lib/gcc/powerpc-eabi/12.1.0/../../../../powerpc-eabi/lib\libsysbase.a(handle_manager.o)
 .text.dup2     0x0000000000000000      0x190 c:/devkitpro/devkitppc/bin/../lib/gcc/powerpc-eabi/12.1.0/../../../../powerpc-eabi/lib\libsysbase.a(handle_manager.o)
 .bss.__hndl_lock
                0x0000000000000000        0x4 c:/devkitpro/devkitppc/bin/../lib/gcc/powerpc-eabi/12.1.0/../../../../powerpc-eabi/lib\libsysbase.a(handle_manager.o)
 .eh_frame      0x0000000000000000       0xfc c:/devkitpro/devkitppc/bin/../lib/gcc/powerpc-eabi/12.1.0/../../../../powerpc-eabi/lib\libsysbase.a(handle_manager.o)
 .text          0x0000000000000000        0x0 c:/devkitpro/devkitppc/bin/../lib/gcc/powerpc-eabi/12.1.0/../../../../powerpc-eabi/lib\libsysbase.a(syscall_support.o)
 .data          0x0000000000000000        0x0 c:/devkitpro/devkitppc/bin/../lib/gcc/powerpc-eabi/12.1.0/../../../../powerpc-eabi/lib\libsysbase.a(syscall_support.o)
 .bss           0x0000000000000000        0x0 c:/devkitpro/devkitppc/bin/../lib/gcc/powerpc-eabi/12.1.0/../../../../powerpc-eabi/lib\libsysbase.a(syscall_support.o)
 .text.__libc_lock_init
                0x0000000000000000       0x1c c:/devkitpro/devkitppc/bin/../lib/gcc/powerpc-eabi/12.1.0/../../../../powerpc-eabi/lib\libsysbase.a(syscall_support.o)
 .text.__libc_lock_close
                0x0000000000000000       0x1c c:/devkitpro/devkitppc/bin/../lib/gcc/powerpc-eabi/12.1.0/../../../../powerpc-eabi/lib\libsysbase.a(syscall_support.o)
 .text.__libc_lock_release
                0x0000000000000000       0x1c c:/devkitpro/devkitppc/bin/../lib/gcc/powerpc-eabi/12.1.0/../../../../powerpc-eabi/lib\libsysbase.a(syscall_support.o)
 .text.__libc_lock_acquire
                0x0000000000000000       0x1c c:/devkitpro/devkitppc/bin/../lib/gcc/powerpc-eabi/12.1.0/../../../../powerpc-eabi/lib\libsysbase.a(syscall_support.o)
 .eh_frame      0x0000000000000000       0x8c c:/devkitpro/devkitppc/bin/../lib/gcc/powerpc-eabi/12.1.0/../../../../powerpc-eabi/lib\libsysbase.a(syscall_support.o)
 .text          0x0000000000000000        0x0 c:/devkitpro/devkitppc/bin/../lib/gcc/powerpc-eabi/12.1.0/../../../../powerpc-eabi/lib\libsysbase.a(iosupport.o)
 .data          0x0000000000000000        0x0 c:/devkitpro/devkitppc/bin/../lib/gcc/powerpc-eabi/12.1.0/../../../../powerpc-eabi/lib\libsysbase.a(iosupport.o)
 .bss           0x0000000000000000        0x0 c:/devkitpro/devkitppc/bin/../lib/gcc/powerpc-eabi/12.1.0/../../../../powerpc-eabi/lib\libsysbase.a(iosupport.o)
 .text.setDefaultDevice
                0x0000000000000000       0x18 c:/devkitpro/devkitppc/bin/../lib/gcc/powerpc-eabi/12.1.0/../../../../powerpc-eabi/lib\libsysbase.a(iosupport.o)
 .text.FindDevice
                0x0000000000000000      0x128 c:/devkitpro/devkitppc/bin/../lib/gcc/powerpc-eabi/12.1.0/../../../../powerpc-eabi/lib\libsysbase.a(iosupport.o)
 .text.RemoveDevice
                0x0000000000000000       0x44 c:/devkitpro/devkitppc/bin/../lib/gcc/powerpc-eabi/12.1.0/../../../../powerpc-eabi/lib\libsysbase.a(iosupport.o)
 .text.AddDevice
                0x0000000000000000      0x114 c:/devkitpro/devkitppc/bin/../lib/gcc/powerpc-eabi/12.1.0/../../../../powerpc-eabi/lib\libsysbase.a(iosupport.o)
 .text.GetDeviceOpTab
                0x0000000000000000       0x4c c:/devkitpro/devkitppc/bin/../lib/gcc/powerpc-eabi/12.1.0/../../../../powerpc-eabi/lib\libsysbase.a(iosupport.o)
 .data.defaultDevice
                0x0000000000000000        0x4 c:/devkitpro/devkitppc/bin/../lib/gcc/powerpc-eabi/12.1.0/../../../../powerpc-eabi/lib\libsysbase.a(iosupport.o)
 .eh_frame      0x0000000000000000      0x124 c:/devkitpro/devkitppc/bin/../lib/gcc/powerpc-eabi/12.1.0/../../../../powerpc-eabi/lib\libsysbase.a(iosupport.o)
 .text          0x0000000000000000        0x0 c:/devkitpro/devkitppc/bin/../lib/gcc/powerpc-eabi/12.1.0/../../../../powerpc-eabi/lib\libc.a(lib_a-ctype_.o)
 .data          0x0000000000000000        0x0 c:/devkitpro/devkitppc/bin/../lib/gcc/powerpc-eabi/12.1.0/../../../../powerpc-eabi/lib\libc.a(lib_a-ctype_.o)
 .bss           0x0000000000000000        0x0 c:/devkitpro/devkitppc/bin/../lib/gcc/powerpc-eabi/12.1.0/../../../../powerpc-eabi/lib\libc.a(lib_a-ctype_.o)
 .text.__set_ctype
                0x0000000000000000       0x10 c:/devkitpro/devkitppc/bin/../lib/gcc/powerpc-eabi/12.1.0/../../../../powerpc-eabi/lib\libc.a(lib_a-ctype_.o)
 .rodata._ctype_
                0x0000000000000000      0x101 c:/devkitpro/devkitppc/bin/../lib/gcc/powerpc-eabi/12.1.0/../../../../powerpc-eabi/lib\libc.a(lib_a-ctype_.o)
 .comment       0x0000000000000000       0x24 c:/devkitpro/devkitppc/bin/../lib/gcc/powerpc-eabi/12.1.0/../../../../powerpc-eabi/lib\libc.a(lib_a-ctype_.o)
 .eh_frame      0x0000000000000000       0x28 c:/devkitpro/devkitppc/bin/../lib/gcc/powerpc-eabi/12.1.0/../../../../powerpc-eabi/lib\libc.a(lib_a-ctype_.o)
 .text          0x0000000000000000        0x0 c:/devkitpro/devkitppc/bin/../lib/gcc/powerpc-eabi/12.1.0/../../../../powerpc-eabi/lib\libc.a(lib_a-errno.o)
 .data          0x0000000000000000        0x0 c:/devkitpro/devkitppc/bin/../lib/gcc/powerpc-eabi/12.1.0/../../../../powerpc-eabi/lib\libc.a(lib_a-errno.o)
 .bss           0x0000000000000000        0x0 c:/devkitpro/devkitppc/bin/../lib/gcc/powerpc-eabi/12.1.0/../../../../powerpc-eabi/lib\libc.a(lib_a-errno.o)
 .text.__errno  0x0000000000000000        0xc c:/devkitpro/devkitppc/bin/../lib/gcc/powerpc-eabi/12.1.0/../../../../powerpc-eabi/lib\libc.a(lib_a-errno.o)
 .comment       0x0000000000000000       0x24 c:/devkitpro/devkitppc/bin/../lib/gcc/powerpc-eabi/12.1.0/../../../../powerpc-eabi/lib\libc.a(lib_a-errno.o)
 .eh_frame      0x0000000000000000       0x28 c:/devkitpro/devkitppc/bin/../lib/gcc/powerpc-eabi/12.1.0/../../../../powerpc-eabi/lib\libc.a(lib_a-errno.o)
 .text          0x0000000000000000        0x0 c:/devkitpro/devkitppc/bin/../lib/gcc/powerpc-eabi/12.1.0/../../../../powerpc-eabi/lib\libc.a(lib_a-strchr.o)
 .data          0x0000000000000000        0x0 c:/devkitpro/devkitppc/bin/../lib/gcc/powerpc-eabi/12.1.0/../../../../powerpc-eabi/lib\libc.a(lib_a-strchr.o)
 .bss           0x0000000000000000        0x0 c:/devkitpro/devkitppc/bin/../lib/gcc/powerpc-eabi/12.1.0/../../../../powerpc-eabi/lib\libc.a(lib_a-strchr.o)
 .text.strchr   0x0000000000000000      0x154 c:/devkitpro/devkitppc/bin/../lib/gcc/powerpc-eabi/12.1.0/../../../../powerpc-eabi/lib\libc.a(lib_a-strchr.o)
 .comment       0x0000000000000000       0x24 c:/devkitpro/devkitppc/bin/../lib/gcc/powerpc-eabi/12.1.0/../../../../powerpc-eabi/lib\libc.a(lib_a-strchr.o)
 .eh_frame      0x0000000000000000       0x28 c:/devkitpro/devkitppc/bin/../lib/gcc/powerpc-eabi/12.1.0/../../../../powerpc-eabi/lib\libc.a(lib_a-strchr.o)
 .text          0x0000000000000000        0x0 c:/devkitpro/devkitppc/bin/../lib/gcc/powerpc-eabi/12.1.0/../../../../powerpc-eabi/lib\libc.a(lib_a-strncmp.o)
 .data          0x0000000000000000        0x0 c:/devkitpro/devkitppc/bin/../lib/gcc/powerpc-eabi/12.1.0/../../../../powerpc-eabi/lib\libc.a(lib_a-strncmp.o)
 .bss           0x0000000000000000        0x0 c:/devkitpro/devkitppc/bin/../lib/gcc/powerpc-eabi/12.1.0/../../../../powerpc-eabi/lib\libc.a(lib_a-strncmp.o)
 .text.strncmp  0x0000000000000000       0xcc c:/devkitpro/devkitppc/bin/../lib/gcc/powerpc-eabi/12.1.0/../../../../powerpc-eabi/lib\libc.a(lib_a-strncmp.o)
 .comment       0x0000000000000000       0x24 c:/devkitpro/devkitppc/bin/../lib/gcc/powerpc-eabi/12.1.0/../../../../powerpc-eabi/lib\libc.a(lib_a-strncmp.o)
 .eh_frame      0x0000000000000000       0x28 c:/devkitpro/devkitppc/bin/../lib/gcc/powerpc-eabi/12.1.0/../../../../powerpc-eabi/lib\libc.a(lib_a-strncmp.o)
 .text          0x0000000000000000       0x10 c:/devkitpro/devkitppc/bin/../lib/gcc/powerpc-eabi/12.1.0/crtend.o
 .data          0x0000000000000000        0x0 c:/devkitpro/devkitppc/bin/../lib/gcc/powerpc-eabi/12.1.0/crtend.o
 .bss           0x0000000000000000        0x0 c:/devkitpro/devkitppc/bin/../lib/gcc/powerpc-eabi/12.1.0/crtend.o
 .ctors         0x0000000000000000        0x4 c:/devkitpro/devkitppc/bin/../lib/gcc/powerpc-eabi/12.1.0/crtend.o
 .dtors         0x0000000000000000        0x4 c:/devkitpro/devkitppc/bin/../lib/gcc/powerpc-eabi/12.1.0/crtend.o
 .eh_frame      0x0000000000000000        0x4 c:/devkitpro/devkitppc/bin/../lib/gcc/powerpc-eabi/12.1.0/crtend.o
 .text.__do_global_ctors_aux
                0x0000000000000000       0x50 c:/devkitpro/devkitppc/bin/../lib/gcc/powerpc-eabi/12.1.0/crtend.o
 .text.call___do_global_ctors_aux
                0x0000000000000000        0xc c:/devkitpro/devkitppc/bin/../lib/gcc/powerpc-eabi/12.1.0/crtend.o
 .init          0x0000000000000000        0x4 c:/devkitpro/devkitppc/bin/../lib/gcc/powerpc-eabi/12.1.0/crtend.o
 .comment       0x0000000000000000       0x24 c:/devkitpro/devkitppc/bin/../lib/gcc/powerpc-eabi/12.1.0/crtend.o
 .text          0x0000000000000000        0x0 c:/devkitpro/devkitppc/bin/../lib/gcc/powerpc-eabi/12.1.0/ecrtn.o
 .data          0x0000000000000000        0x0 c:/devkitpro/devkitppc/bin/../lib/gcc/powerpc-eabi/12.1.0/ecrtn.o
 .bss           0x0000000000000000        0x0 c:/devkitpro/devkitppc/bin/../lib/gcc/powerpc-eabi/12.1.0/ecrtn.o
 .comment       0x0000000000000000        0xe c:/devkitpro/devkitppc/bin/../lib/gcc/powerpc-eabi/12.1.0/ecrtn.o
 .got           0x0000000000000000        0x0 c:/devkitpro/devkitppc/bin/../lib/gcc/powerpc-eabi/12.1.0/ecrtn.o
 .got1          0x0000000000000000        0x0 c:/devkitpro/devkitppc/bin/../lib/gcc/powerpc-eabi/12.1.0/ecrtn.o
 .got2          0x0000000000000000        0x0 c:/devkitpro/devkitppc/bin/../lib/gcc/powerpc-eabi/12.1.0/ecrtn.o
 .fixup         0x0000000000000000        0x0 c:/devkitpro/devkitppc/bin/../lib/gcc/powerpc-eabi/12.1.0/ecrtn.o
 .ctors         0x0000000000000000        0x0 c:/devkitpro/devkitppc/bin/../lib/gcc/powerpc-eabi/12.1.0/ecrtn.o
 .dtors         0x0000000000000000        0x0 c:/devkitpro/devkitppc/bin/../lib/gcc/powerpc-eabi/12.1.0/ecrtn.o
 .sdata         0x0000000000000000        0x0 c:/devkitpro/devkitppc/bin/../lib/gcc/powerpc-eabi/12.1.0/ecrtn.o
 .sbss          0x0000000000000000        0x0 c:/devkitpro/devkitppc/bin/../lib/gcc/powerpc-eabi/12.1.0/ecrtn.o
 .sdata2        0x0000000000000000        0x0 c:/devkitpro/devkitppc/bin/../lib/gcc/powerpc-eabi/12.1.0/ecrtn.o
 .sbss2         0x0000000000000000        0x0 c:/devkitpro/devkitppc/bin/../lib/gcc/powerpc-eabi/12.1.0/ecrtn.o
 .gcc_except_table
                0x0000000000000000        0x0 c:/devkitpro/devkitppc/bin/../lib/gcc/powerpc-eabi/12.1.0/ecrtn.o
 .eh_frame      0x0000000000000000        0x4 c:/devkitpro/devkitppc/bin/../lib/gcc/powerpc-eabi/12.1.0/ecrtn.o
 .init          0x0000000000000000       0x10 c:/devkitpro/devkitppc/bin/../lib/gcc/powerpc-eabi/12.1.0/ecrtn.o
 .fini          0x0000000000000000       0x10 c:/devkitpro/devkitppc/bin/../lib/gcc/powerpc-eabi/12.1.0/ecrtn.o

Memory Configuration

Name             Origin             Length             Attributes
TEXT_MEM         0x0000000001800000 0x0000000010000000
*default*        0x0000000000000000 0xffffffffffffffff

Linker script and memory map

LOAD c:/devkitpro/devkitppc/bin/../lib/gcc/powerpc-eabi/12.1.0/ecrti.o
LOAD c:/devkitpro/devkitppc/bin/../lib/gcc/powerpc-eabi/12.1.0/crtbegin.o
LOAD Main.o
LOAD c:/devkitpro/devkitppc/bin/../lib/gcc/powerpc-eabi/12.1.0/../../../../powerpc-eabi/lib\libstdc++.a
LOAD c:/devkitpro/devkitppc/bin/../lib/gcc/powerpc-eabi/12.1.0/../../../../powerpc-eabi/lib\libm.a
LOAD c:/devkitpro/devkitppc/bin/../lib/gcc/powerpc-eabi/12.1.0\libgcc.a
START GROUP
LOAD c:/devkitpro/devkitppc/bin/../lib/gcc/powerpc-eabi/12.1.0/../../../../powerpc-eabi/lib\libsysbase.a
LOAD c:/devkitpro/devkitppc/bin/../lib/gcc/powerpc-eabi/12.1.0/../../../../powerpc-eabi/lib\libc.a
END GROUP
LOAD c:/devkitpro/devkitppc/bin/../lib/gcc/powerpc-eabi/12.1.0\libgcc.a
LOAD c:/devkitpro/devkitppc/bin/../lib/gcc/powerpc-eabi/12.1.0/crtend.o
LOAD c:/devkitpro/devkitppc/bin/../lib/gcc/powerpc-eabi/12.1.0/ecrtn.o

.eh_frame_hdr   0x0000000000000000        0x0
 .eh_frame_hdr  0x0000000000000000        0x0 Main.o

.eh_frame       0x0000000000000000        0x0
 .eh_frame      0x0000000000000000        0x0 Main.o

.sdata2         0x0000000000000000        0x0
 .sdata2        0x0000000000000000        0x0 Main.o

.text           0x0000000001800000     0x9f74
 *(.entry)
 .entry         0x0000000001800000       0x20 Main.o
                0x0000000001800000                entry
 *(.text.*)
 .text._Z10targetAddrj
                0x0000000001800020       0x18 Main.o
                0x0000000001800020                _Z10targetAddrj
 .text._Z12InitTCPGeckov
                0x0000000001800038       0x44 Main.o
                0x0000000001800038                _Z12InitTCPGeckov
 .text._Z7_deletePv
                0x000000000180007c       0x10 Main.o
                0x000000000180007c                _Z7_deletePv
 .text._ZdlPv   0x000000000180008c       0x20 Main.o
                0x000000000180008c                _ZdlPv
 .text._Z27InitLibCurlFunctionPointersv
                0x00000000018000ac      0x130 Main.o
                0x00000000018000ac                _Z27InitLibCurlFunctionPointersv
 .text._Z26InitSocketFunctionPointersv
                0x00000000018001dc      0x3c4 Main.o
                0x00000000018001dc                _Z26InitSocketFunctionPointersv
 .text._Z24InitVPadFunctionPointersv
                0x00000000018005a0       0xa0 Main.o
                0x00000000018005a0                _Z24InitVPadFunctionPointersv
 .text._Z23InitGX2FunctionPointersv
                0x0000000001800640       0x70 Main.o
                0x0000000001800640                _Z23InitGX2FunctionPointersv
 .text._Z26InitKernelFunctionPointersv
                0x00000000018006b0       0xd0 Main.o
                0x00000000018006b0                _Z26InitKernelFunctionPointersv
 .text._Z22InitOSFunctionPointersv
                0x0000000001800780      0x310 Main.o
                0x0000000001800780                _Z22InitOSFunctionPointersv
 .text._Z26InitMemoryFunctionPointersv
                0x0000000001800a90      0x22c Main.o
                0x0000000001800a90                _Z26InitMemoryFunctionPointersv
 .text._Z16memoryInitializev
                0x0000000001800cbc       0xf4 Main.o
                0x0000000001800cbc                _Z16memoryInitializev
 .text._Z4_newIcEPT_j
                0x0000000001800db0       0x40 Main.o
                0x0000000001800db0                _Z4_newIcEPT_j
 .text._Z5_mainv
                0x0000000001800df0       0x9c Main.o
                0x0000000001800df0                _Z5_mainv
 .text._Z8InitWupsv
                0x0000000001800e8c       0x3c Main.o
                0x0000000001800e8c                _Z8InitWupsv
 .text._Z4initv
                0x0000000001800ec8       0x40 Main.o
                0x0000000001800ec8                _Z4initv
 .text._Z6c_mainPv
                0x0000000001800f08       0x24 Main.o
                0x0000000001800f08                _Z6c_mainPv
 .text._ZdlPvj  0x0000000001800f2c        0x4 c:/devkitpro/devkitppc/bin/../lib/gcc/powerpc-eabi/12.1.0/../../../../powerpc-eabi/lib\libstdc++.a(del_ops.o)
                0x0000000001800f2c                _ZdlPvj
 .text._ZL16get_adjusted_ptrPKSt9type_infoS1_PPv
                0x0000000001800f30       0xa0 c:/devkitpro/devkitppc/bin/../lib/gcc/powerpc-eabi/12.1.0/../../../../powerpc-eabi/lib\libstdc++.a(eh_personality.o)
 .text._ZL28read_encoded_value_with_basehjPKhPj
                0x0000000001800fd0      0x13c c:/devkitpro/devkitppc/bin/../lib/gcc/powerpc-eabi/12.1.0/../../../../powerpc-eabi/lib\libstdc++.a(eh_personality.o)
 .text._ZL21base_of_encoded_valuehP15_Unwind_Context
                0x000000000180110c       0x68 c:/devkitpro/devkitppc/bin/../lib/gcc/powerpc-eabi/12.1.0/../../../../powerpc-eabi/lib\libstdc++.a(eh_personality.o)
 .text._ZL17parse_lsda_headerP15_Unwind_ContextPKhP16lsda_header_info
                0x0000000001801174      0x11c c:/devkitpro/devkitppc/bin/../lib/gcc/powerpc-eabi/12.1.0/../../../../powerpc-eabi/lib\libstdc++.a(eh_personality.o)
 .text._ZL20check_exception_specP16lsda_header_infoPKSt9type_infoPvl
                0x0000000001801290      0x138 c:/devkitpro/devkitppc/bin/../lib/gcc/powerpc-eabi/12.1.0/../../../../powerpc-eabi/lib\libstdc++.a(eh_personality.o)
 .text.__gxx_personality_v0
                0x00000000018013c8      0x7a4 c:/devkitpro/devkitppc/bin/../lib/gcc/powerpc-eabi/12.1.0/../../../../powerpc-eabi/lib\libstdc++.a(eh_personality.o)
                0x00000000018013c8                __gxx_personality_v0
 .text._ZN10__cxxabiv111__terminateEPFvvE
                0x0000000001801b6c       0x20 c:/devkitpro/devkitppc/bin/../lib/gcc/powerpc-eabi/12.1.0/../../../../powerpc-eabi/lib\libstdc++.a(eh_terminate.o)
                0x0000000001801b6c                _ZN10__cxxabiv111__terminateEPFvvE
 .text._ZSt9terminatev
                0x0000000001801b8c       0x24 c:/devkitpro/devkitppc/bin/../lib/gcc/powerpc-eabi/12.1.0/../../../../powerpc-eabi/lib\libstdc++.a(eh_terminate.o)
                0x0000000001801b8c                _ZSt9terminatev
 .text._ZN10__cxxabiv112__unexpectedEPFvvE
                0x0000000001801bb0       0x18 c:/devkitpro/devkitppc/bin/../lib/gcc/powerpc-eabi/12.1.0/../../../../powerpc-eabi/lib\libstdc++.a(eh_terminate.o)
                0x0000000001801bb0                _ZN10__cxxabiv112__unexpectedEPFvvE
 .text._ZSt10unexpectedv
                0x0000000001801bc8       0x24 c:/devkitpro/devkitppc/bin/../lib/gcc/powerpc-eabi/12.1.0/../../../../powerpc-eabi/lib\libstdc++.a(eh_terminate.o)
                0x0000000001801bc8                _ZSt10unexpectedv
 .text.__cxa_call_terminate
                0x0000000001801bec       0x58 c:/devkitpro/devkitppc/bin/../lib/gcc/powerpc-eabi/12.1.0/../../../../powerpc-eabi/lib\libstdc++.a(eh_call.o)
                0x0000000001801bec                __cxa_call_terminate
 .text.__cxa_begin_catch
                0x0000000001801c44       0xc4 c:/devkitpro/devkitppc/bin/../lib/gcc/powerpc-eabi/12.1.0/../../../../powerpc-eabi/lib\libstdc++.a(eh_catch.o)
                0x0000000001801c44                __cxa_begin_catch
 .text.__cxa_get_globals
                0x0000000001801d08       0xbc c:/devkitpro/devkitppc/bin/../lib/gcc/powerpc-eabi/12.1.0/../../../../powerpc-eabi/lib\libstdc++.a(eh_globals.o)
                0x0000000001801d08                __cxa_get_globals
 .text._ZN10__cxxabiv120__si_class_type_infoD2Ev
                0x0000000001801dc4       0x10 c:/devkitpro/devkitppc/bin/../lib/gcc/powerpc-eabi/12.1.0/../../../../powerpc-eabi/lib\libstdc++.a(si_class_type_info.o)
                0x0000000001801dc4                _ZN10__cxxabiv120__si_class_type_infoD1Ev
                0x0000000001801dc4                _ZN10__cxxabiv120__si_class_type_infoD2Ev
 .text._ZN10__cxxabiv120__si_class_type_infoD0Ev
                0x0000000001801dd4       0x40 c:/devkitpro/devkitppc/bin/../lib/gcc/powerpc-eabi/12.1.0/../../../../powerpc-eabi/lib\libstdc++.a(si_class_type_info.o)
                0x0000000001801dd4                _ZN10__cxxabiv120__si_class_type_infoD0Ev
 .text._ZNK10__cxxabiv120__si_class_type_info12__do_dyncastEiNS_17__class_type_info10__sub_kindEPKS1_PKvS4_S6_RNS1_16__dyncast_resultE
                0x0000000001801e14      0x1d4 c:/devkitpro/devkitppc/bin/../lib/gcc/powerpc-eabi/12.1.0/../../../../powerpc-eabi/lib\libstdc++.a(si_class_type_info.o)
                0x0000000001801e14                _ZNK10__cxxabiv120__si_class_type_info12__do_dyncastEiNS_17__class_type_info10__sub_kindEPKS1_PKvS4_S6_RNS1_16__dyncast_resultE
 .text._ZNK10__cxxabiv120__si_class_type_info20__do_find_public_srcEiPKvPKNS_17__class_type_infoES2_
                0x0000000001801fe8       0xb4 c:/devkitpro/devkitppc/bin/../lib/gcc/powerpc-eabi/12.1.0/../../../../powerpc-eabi/lib\libstdc++.a(si_class_type_info.o)
                0x0000000001801fe8                _ZNK10__cxxabiv120__si_class_type_info20__do_find_public_srcEiPKvPKNS_17__class_type_infoES2_
 .text._ZNK10__cxxabiv120__si_class_type_info11__do_upcastEPKNS_17__class_type_infoEPKvRNS1_15__upcast_resultE
                0x000000000180209c       0x94 c:/devkitpro/devkitppc/bin/../lib/gcc/powerpc-eabi/12.1.0/../../../../powerpc-eabi/lib\libstdc++.a(si_class_type_info.o)
                0x000000000180209c                _ZNK10__cxxabiv120__si_class_type_info11__do_upcastEPKNS_17__class_type_infoEPKvRNS1_15__upcast_resultE
 .text._ZNSt9type_infoD2Ev
                0x0000000001802130        0x4 c:/devkitpro/devkitppc/bin/../lib/gcc/powerpc-eabi/12.1.0/../../../../powerpc-eabi/lib\libstdc++.a(tinfo.o)
                0x0000000001802130                _ZNSt9type_infoD2Ev
                0x0000000001802130                _ZNSt9type_infoD1Ev
 .text._ZNKSt9type_info14__is_pointer_pEv
                0x0000000001802134        0x8 c:/devkitpro/devkitppc/bin/../lib/gcc/powerpc-eabi/12.1.0/../../../../powerpc-eabi/lib\libstdc++.a(tinfo.o)
                0x0000000001802134                _ZNKSt9type_info14__is_pointer_pEv
                0x0000000001802134                _ZNKSt9type_info15__is_function_pEv
 .text._ZNK10__cxxabiv117__class_type_info11__do_upcastEPKS0_PPv
                0x000000000180213c       0x7c c:/devkitpro/devkitppc/bin/../lib/gcc/powerpc-eabi/12.1.0/../../../../powerpc-eabi/lib\libstdc++.a(class_type_info.o)
                0x000000000180213c                _ZNK10__cxxabiv117__class_type_info11__do_upcastEPKS0_PPv
 .text._ZNK10__cxxabiv117__class_type_info20__do_find_public_srcEiPKvPKS0_S2_
                0x00000000018021b8       0x18 c:/devkitpro/devkitppc/bin/../lib/gcc/powerpc-eabi/12.1.0/../../../../powerpc-eabi/lib\libstdc++.a(class_type_info.o)
                0x00000000018021b8                _ZNK10__cxxabiv117__class_type_info20__do_find_public_srcEiPKvPKS0_S2_
 .text._ZN10__cxxabiv117__class_type_infoD2Ev
                0x00000000018021d0       0x10 c:/devkitpro/devkitppc/bin/../lib/gcc/powerpc-eabi/12.1.0/../../../../powerpc-eabi/lib\libstdc++.a(class_type_info.o)
                0x00000000018021d0                _ZN10__cxxabiv117__class_type_infoD2Ev
                0x00000000018021d0                _ZN10__cxxabiv117__class_type_infoD1Ev
 .text._ZN10__cxxabiv117__class_type_infoD0Ev
                0x00000000018021e0       0x40 c:/devkitpro/devkitppc/bin/../lib/gcc/powerpc-eabi/12.1.0/../../../../powerpc-eabi/lib\libstdc++.a(class_type_info.o)
                0x00000000018021e0                _ZN10__cxxabiv117__class_type_infoD0Ev
 .text._ZNK10__cxxabiv117__class_type_info11__do_upcastEPKS0_PKvRNS0_15__upcast_resultE
                0x0000000001802220       0x94 c:/devkitpro/devkitppc/bin/../lib/gcc/powerpc-eabi/12.1.0/../../../../powerpc-eabi/lib\libstdc++.a(class_type_info.o)
                0x0000000001802220                _ZNK10__cxxabiv117__class_type_info11__do_upcastEPKS0_PKvRNS0_15__upcast_resultE
 .text._ZNK10__cxxabiv117__class_type_info10__do_catchEPKSt9type_infoPPvj
                0x00000000018022b4      0x104 c:/devkitpro/devkitppc/bin/../lib/gcc/powerpc-eabi/12.1.0/../../../../powerpc-eabi/lib\libstdc++.a(class_type_info.o)
                0x00000000018022b4                _ZNK10__cxxabiv117__class_type_info10__do_catchEPKSt9type_infoPPvj
 .text._ZNK10__cxxabiv117__class_type_info12__do_dyncastEiNS0_10__sub_kindEPKS0_PKvS3_S5_RNS0_16__dyncast_resultE
                0x00000000018023b8      0x138 c:/devkitpro/devkitppc/bin/../lib/gcc/powerpc-eabi/12.1.0/../../../../powerpc-eabi/lib\libstdc++.a(class_type_info.o)
                0x00000000018023b8                _ZNK10__cxxabiv117__class_type_info12__do_dyncastEiNS0_10__sub_kindEPKS0_PKvS3_S5_RNS0_16__dyncast_resultE
 .text.__gthread_once
                0x00000000018024f0       0x1c c:/devkitpro/devkitppc/bin/../lib/gcc/powerpc-eabi/12.1.0\libgcc.a(gthr-dkp.o)
                0x00000000018024f0                __gthread_once
 .text.__gthread_getspecific
                0x000000000180250c       0x44 c:/devkitpro/devkitppc/bin/../lib/gcc/powerpc-eabi/12.1.0\libgcc.a(gthr-dkp.o)
                0x000000000180250c                __gthread_getspecific
 .text.__gthread_setspecific
                0x0000000001802550       0x44 c:/devkitpro/devkitppc/bin/../lib/gcc/powerpc-eabi/12.1.0\libgcc.a(gthr-dkp.o)
                0x0000000001802550                __gthread_setspecific
 .text.__gthread_mutex_init_function
                0x0000000001802594       0x14 c:/devkitpro/devkitppc/bin/../lib/gcc/powerpc-eabi/12.1.0\libgcc.a(gthr-dkp.o)
                0x0000000001802594                __gthread_mutex_init_function
 .text.__gthread_mutex_lock
                0x00000000018025a8       0x1c c:/devkitpro/devkitppc/bin/../lib/gcc/powerpc-eabi/12.1.0\libgcc.a(gthr-dkp.o)
                0x00000000018025a8                __gthread_mutex_lock
 .text.__gthread_mutex_unlock
                0x00000000018025c4       0x1c c:/devkitpro/devkitppc/bin/../lib/gcc/powerpc-eabi/12.1.0\libgcc.a(gthr-dkp.o)
                0x00000000018025c4                __gthread_mutex_unlock
 .text.init_dwarf_reg_size_table
                0x00000000018025e0      0x1d0 c:/devkitpro/devkitppc/bin/../lib/gcc/powerpc-eabi/12.1.0\libgcc.a(unwind-dw2.o)
 .text.uw_install_context_1
                0x00000000018027b0      0x1d0 c:/devkitpro/devkitppc/bin/../lib/gcc/powerpc-eabi/12.1.0\libgcc.a(unwind-dw2.o)
 .text.read_encoded_value
                0x0000000001802980      0x194 c:/devkitpro/devkitppc/bin/../lib/gcc/powerpc-eabi/12.1.0\libgcc.a(unwind-dw2.o)
 .text.execute_stack_op
                0x0000000001802b14      0x88c c:/devkitpro/devkitppc/bin/../lib/gcc/powerpc-eabi/12.1.0\libgcc.a(unwind-dw2.o)
 .text.uw_update_context_1
                0x00000000018033a0      0x39c c:/devkitpro/devkitppc/bin/../lib/gcc/powerpc-eabi/12.1.0\libgcc.a(unwind-dw2.o)
 .text.execute_cfa_program
                0x000000000180373c      0x934 c:/devkitpro/devkitppc/bin/../lib/gcc/powerpc-eabi/12.1.0\libgcc.a(unwind-dw2.o)
 .text.uw_frame_state_for
                0x0000000001804070      0x4e4 c:/devkitpro/devkitppc/bin/../lib/gcc/powerpc-eabi/12.1.0\libgcc.a(unwind-dw2.o)
 .text.uw_init_context_1
                0x0000000001804554      0x2cc c:/devkitpro/devkitppc/bin/../lib/gcc/powerpc-eabi/12.1.0\libgcc.a(unwind-dw2.o)
 .text._Unwind_RaiseException_Phase2
                0x0000000001804820      0x1c8 c:/devkitpro/devkitppc/bin/../lib/gcc/powerpc-eabi/12.1.0\libgcc.a(unwind-dw2.o)
 .text._Unwind_ForcedUnwind_Phase2
                0x00000000018049e8      0x1d8 c:/devkitpro/devkitppc/bin/../lib/gcc/powerpc-eabi/12.1.0\libgcc.a(unwind-dw2.o)
 .text._Unwind_SetGR
                0x0000000001804bc0       0x68 c:/devkitpro/devkitppc/bin/../lib/gcc/powerpc-eabi/12.1.0\libgcc.a(unwind-dw2.o)
                0x0000000001804bc0                _Unwind_SetGR
 .text._Unwind_GetIPInfo
                0x0000000001804c28       0x14 c:/devkitpro/devkitppc/bin/../lib/gcc/powerpc-eabi/12.1.0\libgcc.a(unwind-dw2.o)
                0x0000000001804c28                _Unwind_GetIPInfo
 .text._Unwind_SetIP
                0x0000000001804c3c        0x8 c:/devkitpro/devkitppc/bin/../lib/gcc/powerpc-eabi/12.1.0\libgcc.a(unwind-dw2.o)
                0x0000000001804c3c                _Unwind_SetIP
 .text._Unwind_GetLanguageSpecificData
                0x0000000001804c44        0x8 c:/devkitpro/devkitppc/bin/../lib/gcc/powerpc-eabi/12.1.0\libgcc.a(unwind-dw2.o)
                0x0000000001804c44                _Unwind_GetLanguageSpecificData
 .text._Unwind_GetRegionStart
                0x0000000001804c4c        0x8 c:/devkitpro/devkitppc/bin/../lib/gcc/powerpc-eabi/12.1.0\libgcc.a(unwind-dw2.o)
                0x0000000001804c4c                _Unwind_GetRegionStart
 .text._Unwind_GetDataRelBase
                0x0000000001804c54        0x8 c:/devkitpro/devkitppc/bin/../lib/gcc/powerpc-eabi/12.1.0\libgcc.a(unwind-dw2.o)
                0x0000000001804c54                _Unwind_GetDataRelBase
 .text._Unwind_GetTextRelBase
                0x0000000001804c5c        0x8 c:/devkitpro/devkitppc/bin/../lib/gcc/powerpc-eabi/12.1.0\libgcc.a(unwind-dw2.o)
                0x0000000001804c5c                _Unwind_GetTextRelBase
 .text._Unwind_DebugHook
                0x0000000001804c64        0x4 c:/devkitpro/devkitppc/bin/../lib/gcc/powerpc-eabi/12.1.0\libgcc.a(unwind-dw2.o)
 .text._Unwind_Resume
                0x0000000001804c68      0x1dc c:/devkitpro/devkitppc/bin/../lib/gcc/powerpc-eabi/12.1.0\libgcc.a(unwind-dw2.o)
                0x0000000001804c68                _Unwind_Resume
 .text.fde_unencoded_compare
                0x0000000001804e44       0x20 c:/devkitpro/devkitppc/bin/../lib/gcc/powerpc-eabi/12.1.0\libgcc.a(unwind-dw2-fde.o)
 .text.frame_downheap
                0x0000000001804e64      0x13c c:/devkitpro/devkitppc/bin/../lib/gcc/powerpc-eabi/12.1.0\libgcc.a(unwind-dw2-fde.o)
 .text.frame_heapsort
                0x0000000001804fa0      0x118 c:/devkitpro/devkitppc/bin/../lib/gcc/powerpc-eabi/12.1.0\libgcc.a(unwind-dw2-fde.o)
 .text.init_object_mutex
                0x00000000018050b8        0xc c:/devkitpro/devkitppc/bin/../lib/gcc/powerpc-eabi/12.1.0\libgcc.a(unwind-dw2-fde.o)
 .text.read_encoded_value_with_base
                0x00000000018050c4      0x13c c:/devkitpro/devkitppc/bin/../lib/gcc/powerpc-eabi/12.1.0\libgcc.a(unwind-dw2-fde.o)
 .text.get_cie_encoding
                0x0000000001805200      0x14c c:/devkitpro/devkitppc/bin/../lib/gcc/powerpc-eabi/12.1.0\libgcc.a(unwind-dw2-fde.o)
 .text.classify_object_over_fdes
                0x000000000180534c      0x250 c:/devkitpro/devkitppc/bin/../lib/gcc/powerpc-eabi/12.1.0\libgcc.a(unwind-dw2-fde.o)
 .text.fde_single_encoding_compare
                0x000000000180559c       0xd0 c:/devkitpro/devkitppc/bin/../lib/gcc/powerpc-eabi/12.1.0\libgcc.a(unwind-dw2-fde.o)
 .text.fde_mixed_encoding_compare
                0x000000000180566c      0x15c c:/devkitpro/devkitppc/bin/../lib/gcc/powerpc-eabi/12.1.0\libgcc.a(unwind-dw2-fde.o)
 .text.add_fdes
                0x00000000018057c8      0x2b8 c:/devkitpro/devkitppc/bin/../lib/gcc/powerpc-eabi/12.1.0\libgcc.a(unwind-dw2-fde.o)
 .text.linear_search_fdes
                0x0000000001805a80      0x318 c:/devkitpro/devkitppc/bin/../lib/gcc/powerpc-eabi/12.1.0\libgcc.a(unwind-dw2-fde.o)
 .text.search_object
                0x0000000001805d98      0x804 c:/devkitpro/devkitppc/bin/../lib/gcc/powerpc-eabi/12.1.0\libgcc.a(unwind-dw2-fde.o)
 .text._Unwind_Find_FDE
                0x000000000180659c      0x260 c:/devkitpro/devkitppc/bin/../lib/gcc/powerpc-eabi/12.1.0\libgcc.a(unwind-dw2-fde.o)
                0x000000000180659c                _Unwind_Find_FDE
 .text.unlikely.abort
                0x00000000018067fc       0x28 c:/devkitpro/devkitppc/bin/../lib/gcc/powerpc-eabi/12.1.0/../../../../powerpc-eabi/lib\libsysbase.a(abort.o)
                0x00000000018067fc                abort
 .text._exit    0x0000000001806824       0x28 c:/devkitpro/devkitppc/bin/../lib/gcc/powerpc-eabi/12.1.0/../../../../powerpc-eabi/lib\libsysbase.a(_exit.o)
                0x0000000001806824                _exit
 .text.malloc   0x000000000180684c       0x10 c:/devkitpro/devkitppc/bin/../lib/gcc/powerpc-eabi/12.1.0/../../../../powerpc-eabi/lib\libc.a(lib_a-malloc.o)
                0x000000000180684c                malloc
 .text.free     0x000000000180685c       0x10 c:/devkitpro/devkitppc/bin/../lib/gcc/powerpc-eabi/12.1.0/../../../../powerpc-eabi/lib\libc.a(lib_a-malloc.o)
                0x000000000180685c                free
 .text._malloc_r
                0x000000000180686c      0x860 c:/devkitpro/devkitppc/bin/../lib/gcc/powerpc-eabi/12.1.0/../../../../powerpc-eabi/lib\libc.a(lib_a-mallocr.o)
                0x000000000180686c                _malloc_r
 .text.memcpy   0x00000000018070cc      0x128 c:/devkitpro/devkitppc/bin/../lib/gcc/powerpc-eabi/12.1.0/../../../../powerpc-eabi/lib\libc.a(lib_a-memcpy.o)
                0x00000000018070cc                memcpy
 .text.memset   0x00000000018071f4      0x194 c:/devkitpro/devkitppc/bin/../lib/gcc/powerpc-eabi/12.1.0/../../../../powerpc-eabi/lib\libc.a(lib_a-memset.o)
                0x00000000018071f4                memset
 .text.strcmp   0x0000000001807388       0x9c c:/devkitpro/devkitppc/bin/../lib/gcc/powerpc-eabi/12.1.0/../../../../powerpc-eabi/lib\libc.a(lib_a-strcmp.o)
                0x0000000001807388                strcmp
 .text.strlen   0x0000000001807424       0x80 c:/devkitpro/devkitppc/bin/../lib/gcc/powerpc-eabi/12.1.0/../../../../powerpc-eabi/lib\libc.a(lib_a-strlen.o)
                0x0000000001807424                strlen
 .text.write    0x00000000018074a4       0x20 c:/devkitpro/devkitppc/bin/../lib/gcc/powerpc-eabi/12.1.0/../../../../powerpc-eabi/lib\libc.a(lib_a-syswrite.o)
                0x00000000018074a4                write
 .text._malloc_trim_r
                0x00000000018074c4      0x138 c:/devkitpro/devkitppc/bin/../lib/gcc/powerpc-eabi/12.1.0/../../../../powerpc-eabi/lib\libc.a(lib_a-freer.o)
                0x00000000018074c4                _malloc_trim_r
 .text._free_r  0x00000000018075fc      0x330 c:/devkitpro/devkitppc/bin/../lib/gcc/powerpc-eabi/12.1.0/../../../../powerpc-eabi/lib\libc.a(lib_a-freer.o)
                0x00000000018075fc                _free_r
 .text._sbrk_r  0x000000000180792c       0x28 c:/devkitpro/devkitppc/bin/../lib/gcc/powerpc-eabi/12.1.0/../../../../powerpc-eabi/lib\libsysbase.a(sbrk.o)
                0x000000000180792c                _sbrk_r
 .text._write_r
                0x0000000001807954       0xc4 c:/devkitpro/devkitppc/bin/../lib/gcc/powerpc-eabi/12.1.0/../../../../powerpc-eabi/lib\libsysbase.a(write.o)
                0x0000000001807954                _write_r
 .text.__get_handle
                0x0000000001807a18       0x24 c:/devkitpro/devkitppc/bin/../lib/gcc/powerpc-eabi/12.1.0/../../../../powerpc-eabi/lib\libsysbase.a(handle_manager.o)
                0x0000000001807a18                __get_handle
 .text.__malloc_lock
                0x0000000001807a3c       0x14 c:/devkitpro/devkitppc/bin/../lib/gcc/powerpc-eabi/12.1.0/../../../../powerpc-eabi/lib\libsysbase.a(syscall_support.o)
                0x0000000001807a3c                __malloc_lock
 .text.__malloc_unlock
                0x0000000001807a50       0x14 c:/devkitpro/devkitppc/bin/../lib/gcc/powerpc-eabi/12.1.0/../../../../powerpc-eabi/lib\libsysbase.a(syscall_support.o)
                0x0000000001807a50                __malloc_unlock
 .text.null_write
                0x0000000001807a64        0x8 c:/devkitpro/devkitppc/bin/../lib/gcc/powerpc-eabi/12.1.0/../../../../powerpc-eabi/lib\libsysbase.a(iosupport.o)
 *(.gcc_except_table)
 *(.gcc_except_table.*)
 .gcc_except_table._ZdlPv
                0x0000000001807a6c        0x4 Main.o
 .gcc_except_table._Z5_mainv
                0x0000000001807a70       0x11 Main.o
 *fill*         0x0000000001807a81        0x3 
 .gcc_except_table.__gxx_personality_v0
                0x0000000001807a84       0x1c c:/devkitpro/devkitppc/bin/../lib/gcc/powerpc-eabi/12.1.0/../../../../powerpc-eabi/lib\libstdc++.a(eh_personality.o)
 .gcc_except_table._ZN10__cxxabiv111__terminateEPFvvE
                0x0000000001807aa0       0x10 c:/devkitpro/devkitppc/bin/../lib/gcc/powerpc-eabi/12.1.0/../../../../powerpc-eabi/lib\libstdc++.a(eh_terminate.o)
 .gcc_except_table.__cxa_get_globals
                0x0000000001807ab0        0x4 c:/devkitpro/devkitppc/bin/../lib/gcc/powerpc-eabi/12.1.0/../../../../powerpc-eabi/lib\libstdc++.a(eh_globals.o)
 *(.sdata)
 .sdata         0x0000000001807ab4        0x0 Main.o
                0x000000000180fab4                _SDA_BASE_
 .sdata         0x0000000001807ab4        0x8 c:/devkitpro/devkitppc/bin/../lib/gcc/powerpc-eabi/12.1.0/../../../../powerpc-eabi/lib\libc.a(lib_a-impure.o)
                0x0000000001807ab4                _global_impure_ptr
                0x0000000001807ab8                _impure_ptr
 *(.sdata.*)
 .sdata._ZN10__cxxabiv120__unexpected_handlerE
                0x0000000001807abc        0x4 c:/devkitpro/devkitppc/bin/../lib/gcc/powerpc-eabi/12.1.0/../../../../powerpc-eabi/lib\libstdc++.a(eh_unex_handler.o)
                0x0000000001807abc                _ZN10__cxxabiv120__unexpected_handlerE
 .sdata._ZTIN10__cxxabiv115__forced_unwindE
                0x0000000001807ac0        0x8 c:/devkitpro/devkitppc/bin/../lib/gcc/powerpc-eabi/12.1.0/../../../../powerpc-eabi/lib\libstdc++.a(eh_exception.o)
                0x0000000001807ac0                _ZTIN10__cxxabiv115__forced_unwindE
 .sdata._ZTIN10__cxxabiv119__foreign_exceptionE
                0x0000000001807ac8        0x8 c:/devkitpro/devkitppc/bin/../lib/gcc/powerpc-eabi/12.1.0/../../../../powerpc-eabi/lib\libstdc++.a(eh_exception.o)
                0x0000000001807ac8                _ZTIN10__cxxabiv119__foreign_exceptionE
 .sdata._ZN10__cxxabiv119__terminate_handlerE
                0x0000000001807ad0        0x4 c:/devkitpro/devkitppc/bin/../lib/gcc/powerpc-eabi/12.1.0/../../../../powerpc-eabi/lib\libstdc++.a(eh_term_handler.o)
                0x0000000001807ad0                _ZN10__cxxabiv119__terminate_handlerE
 .sdata._ZTISt9type_info
                0x0000000001807ad4        0x8 c:/devkitpro/devkitppc/bin/../lib/gcc/powerpc-eabi/12.1.0/../../../../powerpc-eabi/lib\libstdc++.a(tinfo.o)
                0x0000000001807ad4                _ZTISt9type_info
 .sdata.__malloc_sbrk_base
                0x0000000001807adc        0x4 c:/devkitpro/devkitppc/bin/../lib/gcc/powerpc-eabi/12.1.0/../../../../powerpc-eabi/lib\libc.a(lib_a-mallocr.o)
                0x0000000001807adc                __malloc_sbrk_base
 .sdata.__malloc_trim_threshold
                0x0000000001807ae0        0x4 c:/devkitpro/devkitppc/bin/../lib/gcc/powerpc-eabi/12.1.0/../../../../powerpc-eabi/lib\libc.a(lib_a-mallocr.o)
                0x0000000001807ae0                __malloc_trim_threshold
 *(.rodata)
 *(.rodata.*)
 .rodata._Z27InitLibCurlFunctionPointersv.str1.1
                0x0000000001807ae4       0x63 Main.o
 .rodata._Z26InitSocketFunctionPointersv.str1.1
                0x0000000001807b47       0xdd Main.o
 .rodata._Z24InitVPadFunctionPointersv.str1.1
                0x0000000001807c24       0x1b Main.o
 .rodata._Z23InitGX2FunctionPointersv.str1.1
                0x0000000001807c3f       0x18 Main.o
 .rodata._Z26InitKernelFunctionPointersv.str1.1
                0x0000000001807c57       0x38 Main.o
 .rodata._Z22InitOSFunctionPointersv.str1.1
                0x0000000001807c8f      0x100 Main.o
 .rodata._Z26InitMemoryFunctionPointersv.str1.1
                0x0000000001807d8f       0xf1 Main.o
 .rodata._Z5_mainv.str1.1
                0x0000000001807e80        0xd Main.o
 *fill*         0x0000000001807e8d        0x3 
 .rodata._ZL28read_encoded_value_with_basehjPKhPj
                0x0000000001807e90       0x34 c:/devkitpro/devkitppc/bin/../lib/gcc/powerpc-eabi/12.1.0/../../../../powerpc-eabi/lib\libstdc++.a(eh_personality.o)
 .rodata._ZTSN10__cxxabiv115__forced_unwindE
                0x0000000001807ec4       0x20 c:/devkitpro/devkitppc/bin/../lib/gcc/powerpc-eabi/12.1.0/../../../../powerpc-eabi/lib\libstdc++.a(eh_exception.o)
                0x0000000001807ec4                _ZTSN10__cxxabiv115__forced_unwindE
 .rodata._ZTSN10__cxxabiv119__foreign_exceptionE
                0x0000000001807ee4       0x24 c:/devkitpro/devkitppc/bin/../lib/gcc/powerpc-eabi/12.1.0/../../../../powerpc-eabi/lib\libstdc++.a(eh_exception.o)
                0x0000000001807ee4                _ZTSN10__cxxabiv119__foreign_exceptionE
 .rodata._ZTSN10__cxxabiv120__si_class_type_infoE
                0x0000000001807f08       0x25 c:/devkitpro/devkitppc/bin/../lib/gcc/powerpc-eabi/12.1.0/../../../../powerpc-eabi/lib\libstdc++.a(si_class_type_info.o)
                0x0000000001807f08                _ZTSN10__cxxabiv120__si_class_type_infoE
 *fill*         0x0000000001807f2d        0x3 
 .rodata._ZTIN10__cxxabiv120__si_class_type_infoE
                0x0000000001807f30        0xc c:/devkitpro/devkitppc/bin/../lib/gcc/powerpc-eabi/12.1.0/../../../../powerpc-eabi/lib\libstdc++.a(si_class_type_info.o)
                0x0000000001807f30                _ZTIN10__cxxabiv120__si_class_type_infoE
 .rodata._ZTVN10__cxxabiv120__si_class_type_infoE
                0x0000000001807f3c       0x2c c:/devkitpro/devkitppc/bin/../lib/gcc/powerpc-eabi/12.1.0/../../../../powerpc-eabi/lib\libstdc++.a(si_class_type_info.o)
                0x0000000001807f3c                _ZTVN10__cxxabiv120__si_class_type_infoE
 .rodata._ZTSSt9type_info
                0x0000000001807f68        0xd c:/devkitpro/devkitppc/bin/../lib/gcc/powerpc-eabi/12.1.0/../../../../powerpc-eabi/lib\libstdc++.a(tinfo.o)
                0x0000000001807f68                _ZTSSt9type_info
 *fill*         0x0000000001807f75        0x3 
 .rodata._ZTSN10__cxxabiv117__class_type_infoE
                0x0000000001807f78       0x22 c:/devkitpro/devkitppc/bin/../lib/gcc/powerpc-eabi/12.1.0/../../../../powerpc-eabi/lib\libstdc++.a(class_type_info.o)
                0x0000000001807f78                _ZTSN10__cxxabiv117__class_type_infoE
 *fill*         0x0000000001807f9a        0x2 
 .rodata._ZTIN10__cxxabiv117__class_type_infoE
                0x0000000001807f9c        0xc c:/devkitpro/devkitppc/bin/../lib/gcc/powerpc-eabi/12.1.0/../../../../powerpc-eabi/lib\libstdc++.a(class_type_info.o)
                0x0000000001807f9c                _ZTIN10__cxxabiv117__class_type_infoE
 .rodata._ZTVN10__cxxabiv117__class_type_infoE
                0x0000000001807fa8       0x2c c:/devkitpro/devkitppc/bin/../lib/gcc/powerpc-eabi/12.1.0/../../../../powerpc-eabi/lib\libstdc++.a(class_type_info.o)
                0x0000000001807fa8                _ZTVN10__cxxabiv117__class_type_infoE
 .rodata.read_encoded_value
                0x0000000001807fd4       0x34 c:/devkitpro/devkitppc/bin/../lib/gcc/powerpc-eabi/12.1.0\libgcc.a(unwind-dw2.o)
 .rodata.execute_stack_op
                0x0000000001808008      0x29c c:/devkitpro/devkitppc/bin/../lib/gcc/powerpc-eabi/12.1.0\libgcc.a(unwind-dw2.o)
 .rodata.uw_update_context_1
                0x00000000018082a4       0x18 c:/devkitpro/devkitppc/bin/../lib/gcc/powerpc-eabi/12.1.0\libgcc.a(unwind-dw2.o)
 .rodata.execute_cfa_program
                0x00000000018082bc       0xc0 c:/devkitpro/devkitppc/bin/../lib/gcc/powerpc-eabi/12.1.0\libgcc.a(unwind-dw2.o)
 .rodata.uw_frame_state_for
                0x000000000180837c       0x48 c:/devkitpro/devkitppc/bin/../lib/gcc/powerpc-eabi/12.1.0\libgcc.a(unwind-dw2.o)
 .rodata.read_encoded_value_with_base
                0x00000000018083c4       0x34 c:/devkitpro/devkitppc/bin/../lib/gcc/powerpc-eabi/12.1.0\libgcc.a(unwind-dw2-fde.o)
 .rodata.terminator.1
                0x00000000018083f8        0x8 c:/devkitpro/devkitppc/bin/../lib/gcc/powerpc-eabi/12.1.0\libgcc.a(unwind-dw2-fde.o)
 .rodata.abort.str1.4
                0x0000000001808400        0xf c:/devkitpro/devkitppc/bin/../lib/gcc/powerpc-eabi/12.1.0/../../../../powerpc-eabi/lib\libsysbase.a(abort.o)
 *fill*         0x000000000180840f        0x1 
 .rodata.AddDevice.str1.4
                0x0000000001808410        0x8 c:/devkitpro/devkitppc/bin/../lib/gcc/powerpc-eabi/12.1.0/../../../../powerpc-eabi/lib\libsysbase.a(iosupport.o)
 .rodata.dotab_stdnull
                0x0000000001808418       0x70 c:/devkitpro/devkitppc/bin/../lib/gcc/powerpc-eabi/12.1.0/../../../../powerpc-eabi/lib\libsysbase.a(iosupport.o)
                0x0000000001808418                dotab_stdnull
 *(.bss)
 *(.bss.*)
 .bss._ZL4init  0x0000000001808488        0x8 c:/devkitpro/devkitppc/bin/../lib/gcc/powerpc-eabi/12.1.0/../../../../powerpc-eabi/lib\libstdc++.a(eh_globals.o)
 .bss._ZL10eh_globals
                0x0000000001808490        0x8 c:/devkitpro/devkitppc/bin/../lib/gcc/powerpc-eabi/12.1.0/../../../../powerpc-eabi/lib\libstdc++.a(eh_globals.o)
 .bss.once_regsizes.0
                0x0000000001808498        0x4 c:/devkitpro/devkitppc/bin/../lib/gcc/powerpc-eabi/12.1.0\libgcc.a(unwind-dw2.o)
 .bss.dwarf_reg_size_table
                0x000000000180849c       0x70 c:/devkitpro/devkitppc/bin/../lib/gcc/powerpc-eabi/12.1.0\libgcc.a(unwind-dw2.o)
 .bss.marker.0  0x000000000180850c        0x4 c:/devkitpro/devkitppc/bin/../lib/gcc/powerpc-eabi/12.1.0\libgcc.a(unwind-dw2-fde.o)
 .bss.once.2    0x0000000001808510        0x4 c:/devkitpro/devkitppc/bin/../lib/gcc/powerpc-eabi/12.1.0\libgcc.a(unwind-dw2-fde.o)
 .bss.object_mutex
                0x0000000001808514       0x2c c:/devkitpro/devkitppc/bin/../lib/gcc/powerpc-eabi/12.1.0\libgcc.a(unwind-dw2-fde.o)
 .bss.seen_objects
                0x0000000001808540        0x4 c:/devkitpro/devkitppc/bin/../lib/gcc/powerpc-eabi/12.1.0\libgcc.a(unwind-dw2-fde.o)
 .bss.unseen_objects
                0x0000000001808544        0x4 c:/devkitpro/devkitppc/bin/../lib/gcc/powerpc-eabi/12.1.0\libgcc.a(unwind-dw2-fde.o)
 .bss.__malloc_current_mallinfo
                0x0000000001808548       0x28 c:/devkitpro/devkitppc/bin/../lib/gcc/powerpc-eabi/12.1.0/../../../../powerpc-eabi/lib\libc.a(lib_a-mallocr.o)
                0x0000000001808548                __malloc_current_mallinfo
 *(.sbss)
 *(.sbss.*)
 .sbss.MEMFreeToExpHeap
                0x0000000001808570        0x4 Main.o
                0x0000000001808570                MEMFreeToExpHeap
 .sbss.MEMDestroyExpHeap
                0x0000000001808574        0x4 Main.o
                0x0000000001808574                MEMDestroyExpHeap
 .sbss.MEMCreateExpHeapEx
                0x0000000001808578        0x4 Main.o
                0x0000000001808578                MEMCreateExpHeapEx
 .sbss.MEMAllocFromExpHeapEx
                0x000000000180857c        0x4 Main.o
                0x000000000180857c                MEMAllocFromExpHeapEx
 .sbss.MEMFreeToFrmHeap
                0x0000000001808580        0x4 Main.o
                0x0000000001808580                MEMFreeToFrmHeap
 .sbss.MEMAllocFromFrmHeapEx
                0x0000000001808584        0x4 Main.o
                0x0000000001808584                MEMAllocFromFrmHeapEx
 .sbss.MEMGetAllocatableSizeForFrmHeapEx
                0x0000000001808588        0x4 Main.o
                0x0000000001808588                MEMGetAllocatableSizeForFrmHeapEx
 .sbss.MEMGetBaseHeapHandle
                0x000000000180858c        0x4 Main.o
                0x000000000180858c                MEMGetBaseHeapHandle
 .sbss.pMEMFreeToDefaultHeap
                0x0000000001808590        0x4 Main.o
                0x0000000001808590                pMEMFreeToDefaultHeap
 .sbss.pMEMAllocFromDefaultHeap
                0x0000000001808594        0x4 Main.o
                0x0000000001808594                pMEMAllocFromDefaultHeap
 .sbss.pMEMAllocFromDefaultHeapEx
                0x0000000001808598        0x4 Main.o
                0x0000000001808598                pMEMAllocFromDefaultHeapEx
 .sbss.OSSetExceptionCallback
                0x000000000180859c        0x4 Main.o
                0x000000000180859c                OSSetExceptionCallback
 .sbss.MCP_Close
                0x00000000018085a0        0x4 Main.o
                0x00000000018085a0                MCP_Close
 .sbss.MCP_GetDeviceId
                0x00000000018085a4        0x4 Main.o
                0x00000000018085a4                MCP_GetDeviceId
 .sbss.MCP_Open
                0x00000000018085a8        0x4 Main.o
                0x00000000018085a8                MCP_Open
 .sbss.OSConsoleWrite
                0x00000000018085ac        0x4 Main.o
                0x00000000018085ac                OSConsoleWrite
 .sbss.OSResumeThread
                0x00000000018085b0        0x4 Main.o
                0x00000000018085b0                OSResumeThread
 .sbss.OSCreateThread
                0x00000000018085b4        0x4 Main.o
                0x00000000018085b4                OSCreateThread
 .sbss.OSScreenFlipBuffersEx
                0x00000000018085b8        0x4 Main.o
                0x00000000018085b8                OSScreenFlipBuffersEx
 .sbss.OSScreenPutFontEx
                0x00000000018085bc        0x4 Main.o
                0x00000000018085bc                OSScreenPutFontEx
 .sbss.OSScreenClearBufferEx
                0x00000000018085c0        0x4 Main.o
                0x00000000018085c0                OSScreenClearBufferEx
 .sbss.OSScreenEnableEx
                0x00000000018085c4        0x4 Main.o
                0x00000000018085c4                OSScreenEnableEx
 .sbss.OSScreenSetBufferEx
                0x00000000018085c8        0x4 Main.o
                0x00000000018085c8                OSScreenSetBufferEx
 .sbss.OSScreenGetBufferSizeEx
                0x00000000018085cc        0x4 Main.o
                0x00000000018085cc                OSScreenGetBufferSizeEx
 .sbss.OSScreenShutdown
                0x00000000018085d0        0x4 Main.o
                0x00000000018085d0                OSScreenShutdown
 .sbss.OSScreenInit
                0x00000000018085d4        0x4 Main.o
                0x00000000018085d4                OSScreenInit
 .sbss.OSFatal  0x00000000018085d8        0x4 Main.o
                0x00000000018085d8                OSFatal
 .sbss.OSEffectiveToPhysical
                0x00000000018085dc        0x4 Main.o
                0x00000000018085dc                OSEffectiveToPhysical
 .sbss.DCFlushRange
                0x00000000018085e0        0x4 Main.o
                0x00000000018085e0                DCFlushRange
 .sbss.GX2WaitForVsync
                0x00000000018085e4        0x4 Main.o
                0x00000000018085e4                GX2WaitForVsync
 .sbss.VPADRead
                0x00000000018085e8        0x4 Main.o
                0x00000000018085e8                VPADRead
 .sbss.VPADInit
                0x00000000018085ec        0x4 Main.o
                0x00000000018085ec                VPADInit
 .sbss.inet_aton
                0x00000000018085f0        0x4 Main.o
                0x00000000018085f0                inet_aton
 .sbss.inet_ntoa
                0x00000000018085f4        0x4 Main.o
                0x00000000018085f4                inet_ntoa
 .sbss.setsockopt
                0x00000000018085f8        0x4 Main.o
                0x00000000018085f8                setsockopt
 .sbss.sendto   0x00000000018085fc        0x4 Main.o
                0x00000000018085fc                sendto
 .sbss.recv     0x0000000001808600        0x4 Main.o
                0x0000000001808600                recv
 .sbss.send     0x0000000001808604        0x4 Main.o
                0x0000000001808604                send
 .sbss.accept   0x0000000001808608        0x4 Main.o
                0x0000000001808608                accept
 .sbss.listen   0x000000000180860c        0x4 Main.o
                0x000000000180860c                listen
 .sbss.bind     0x0000000001808610        0x4 Main.o
                0x0000000001808610                bind
 .sbss.connect  0x0000000001808614        0x4 Main.o
                0x0000000001808614                connect
 .sbss.socketclose
                0x0000000001808618        0x4 Main.o
                0x0000000001808618                socketclose
 .sbss.socket   0x000000000180861c        0x4 Main.o
                0x000000000180861c                socket
 .sbss.socket_lib_finish
                0x0000000001808620        0x4 Main.o
                0x0000000001808620                socket_lib_finish
 .sbss.socket_lib_init
                0x0000000001808624        0x4 Main.o
                0x0000000001808624                socket_lib_init
 .sbss.hostIpAddress
                0x0000000001808628        0x4 Main.o
                0x0000000001808628                hostIpAddress
 .sbss.curl_slist_append
                0x000000000180862c        0x4 Main.o
                0x000000000180862c                curl_slist_append
 .sbss.curl_easy_setopt
                0x0000000001808630        0x4 Main.o
                0x0000000001808630                curl_easy_setopt
 .sbss.curl_easy_perform
                0x0000000001808634        0x4 Main.o
                0x0000000001808634                curl_easy_perform
 .sbss.curl_easy_cleanup
                0x0000000001808638        0x4 Main.o
                0x0000000001808638                curl_easy_cleanup
 .sbss.curl_easy_init
                0x000000000180863c        0x4 Main.o
                0x000000000180863c                curl_easy_init
 .sbss.real_instructions
                0x0000000001808640        0x8 Main.o
                0x0000000001808640                real_instructions
 .sbss.OSDynLoad_FindExport
                0x0000000001808648        0x4 Main.o
                0x0000000001808648                OSDynLoad_FindExport
 .sbss.OSDynLoad_Acquire
                0x000000000180864c        0x4 Main.o
                0x000000000180864c                OSDynLoad_Acquire
 .sbss.__malloc_max_total_mem
                0x0000000001808650        0x4 c:/devkitpro/devkitppc/bin/../lib/gcc/powerpc-eabi/12.1.0/../../../../powerpc-eabi/lib\libc.a(lib_a-mallocr.o)
                0x0000000001808650                __malloc_max_total_mem
 .sbss.__malloc_max_sbrked_mem
                0x0000000001808654        0x4 c:/devkitpro/devkitppc/bin/../lib/gcc/powerpc-eabi/12.1.0/../../../../powerpc-eabi/lib\libc.a(lib_a-mallocr.o)
                0x0000000001808654                __malloc_max_sbrked_mem
 .sbss.__malloc_top_pad
                0x0000000001808658        0x4 c:/devkitpro/devkitppc/bin/../lib/gcc/powerpc-eabi/12.1.0/../../../../powerpc-eabi/lib\libc.a(lib_a-mallocr.o)
                0x0000000001808658                __malloc_top_pad
 *(.data)
 *(.data.*)
 .data._ZL11bucket_heap
                0x000000000180865c        0x4 Main.o
 .data._ZL9mem1_heap
                0x0000000001808660        0x4 Main.o
 .data.__malloc_av_
                0x0000000001808664      0x408 c:/devkitpro/devkitppc/bin/../lib/gcc/powerpc-eabi/12.1.0/../../../../powerpc-eabi/lib\libc.a(lib_a-mallocr.o)
                0x0000000001808664                __malloc_av_
 *fill*         0x0000000001808a6c        0x4 
 .data.impure_data
                0x0000000001808a70      0x448 c:/devkitpro/devkitppc/bin/../lib/gcc/powerpc-eabi/12.1.0/../../../../powerpc-eabi/lib\libc.a(lib_a-impure.o)
 .data.handles  0x0000000001808eb8     0x1000 c:/devkitpro/devkitppc/bin/../lib/gcc/powerpc-eabi/12.1.0/../../../../powerpc-eabi/lib\libsysbase.a(handle_manager.o)
 .data.__stderr_handle
                0x0000000001809eb8        0xc c:/devkitpro/devkitppc/bin/../lib/gcc/powerpc-eabi/12.1.0/../../../../powerpc-eabi/lib\libsysbase.a(handle_manager.o)
 .data.__stdout_handle
                0x0000000001809ec4        0xc c:/devkitpro/devkitppc/bin/../lib/gcc/powerpc-eabi/12.1.0/../../../../powerpc-eabi/lib\libsysbase.a(handle_manager.o)
 .data.__stdin_handle
                0x0000000001809ed0        0xc c:/devkitpro/devkitppc/bin/../lib/gcc/powerpc-eabi/12.1.0/../../../../powerpc-eabi/lib\libsysbase.a(handle_manager.o)
 .data.devoptab_list
                0x0000000001809edc       0x40 c:/devkitpro/devkitppc/bin/../lib/gcc/powerpc-eabi/12.1.0/../../../../powerpc-eabi/lib\libsysbase.a(iosupport.o)
                0x0000000001809edc                devoptab_list
 *(.ext)
 *(.ext.*)
                0x0000000001809f1c                data_end = .
 .text          0x0000000001809f1c       0x58 c:/devkitpro/devkitppc/bin/../lib/gcc/powerpc-eabi/12.1.0\libgcc.a(crtresxgpr.o)
                0x0000000001809f1c                _restgpr_14_x
                0x0000000001809f20                _restgpr_15_x
                0x0000000001809f24                _restgpr_16_x
                0x0000000001809f28                _restgpr_17_x
                0x0000000001809f2c                _restgpr_18_x
                0x0000000001809f30                _restgpr_19_x
                0x0000000001809f34                _restgpr_20_x
                0x0000000001809f38                _restgpr_21_x
                0x0000000001809f3c                _restgpr_22_x
                0x0000000001809f40                _restgpr_23_x
                0x0000000001809f44                _restgpr_24_x
                0x0000000001809f48                _restgpr_25_x
                0x0000000001809f4c                _restgpr_26_x
                0x0000000001809f50                _restgpr_27_x
                0x0000000001809f54                _restgpr_28_x
                0x0000000001809f58                _restgpr_29_x
                0x0000000001809f5c                _restgpr_30_x
                0x0000000001809f60                _restgpr_31_x
OUTPUT(../CodeLib_dbg.elf elf32-powerpc)

.glink          0x0000000001809f74        0x0
 .glink         0x0000000001809f74        0x0 Main.o

.branch_lt      0x0000000001809f74        0x0
 .branch_lt     0x0000000001809f74        0x0 Main.o

.rela.dyn       0x0000000001809f74        0x0
 .rela.iplt     0x0000000001809f74        0x0 Main.o
 .rela.text.__gxx_personality_v0
                0x0000000001809f74        0x0 Main.o
 .rela.sdata._ZTIN10__cxxabiv115__forced_unwindE
                0x0000000001809f74        0x0 Main.o
 .rela.sdata._ZTIN10__cxxabiv119__foreign_exceptionE
                0x0000000001809f74        0x0 Main.o
 .rela.text._ZN10__cxxabiv120__si_class_type_infoD2Ev
                0x0000000001809f74        0x0 Main.o
 .rela.text._ZN10__cxxabiv120__si_class_type_infoD0Ev
                0x0000000001809f74        0x0 Main.o
 .rela.rodata._ZTIN10__cxxabiv120__si_class_type_infoE
                0x0000000001809f74        0x0 Main.o
 .rela.rodata._ZTVN10__cxxabiv120__si_class_type_infoE
                0x0000000001809f74        0x0 Main.o
 .rela.sdata._ZTISt9type_info
                0x0000000001809f74        0x0 Main.o
 .rela.text._ZN10__cxxabiv117__class_type_infoD2Ev
                0x0000000001809f74        0x0 Main.o
 .rela.text._ZN10__cxxabiv117__class_type_infoD0Ev
                0x0000000001809f74        0x0 Main.o
 .rela.rodata._ZTIN10__cxxabiv117__class_type_infoE
                0x0000000001809f74        0x0 Main.o
 .rela.rodata._ZTVN10__cxxabiv117__class_type_infoE
                0x0000000001809f74        0x0 Main.o
 .rela.text.__gthread_once
                0x0000000001809f74        0x0 Main.o
 .rela.text.__gthread_getspecific
                0x0000000001809f74        0x0 Main.o
 .rela.text.__gthread_setspecific
                0x0000000001809f74        0x0 Main.o
 .rela.text.__gthread_mutex_init_function
                0x0000000001809f74        0x0 Main.o
 .rela.text.__gthread_mutex_lock
                0x0000000001809f74        0x0 Main.o
 .rela.text.__gthread_mutex_unlock
                0x0000000001809f74        0x0 Main.o
 .rela.text._exit
                0x0000000001809f74        0x0 Main.o
 .rela.text._sbrk_r
                0x0000000001809f74        0x0 Main.o
 .rela.text.__malloc_lock
                0x0000000001809f74        0x0 Main.o
 .rela.text.__malloc_unlock
                0x0000000001809f74        0x0 Main.o

.iplt           0x0000000001809f80        0x0
 .iplt          0x0000000001809f80        0x0 Main.o

.comment        0x0000000000000000       0x23
 .comment       0x0000000000000000       0x23 Main.o
                                         0x24 (size before relaxing)
 .comment       0x0000000000000023       0x24 c:/devkitpro/devkitppc/bin/../lib/gcc/powerpc-eabi/12.1.0/../../../../powerpc-eabi/lib\libstdc++.a(del_ops.o)
 .comment       0x0000000000000023       0x24 c:/devkitpro/devkitppc/bin/../lib/gcc/powerpc-eabi/12.1.0/../../../../powerpc-eabi/lib\libstdc++.a(eh_personality.o)
 .comment       0x0000000000000023       0x24 c:/devkitpro/devkitppc/bin/../lib/gcc/powerpc-eabi/12.1.0/../../../../powerpc-eabi/lib\libstdc++.a(eh_terminate.o)
 .comment       0x0000000000000023       0x24 c:/devkitpro/devkitppc/bin/../lib/gcc/powerpc-eabi/12.1.0/../../../../powerpc-eabi/lib\libstdc++.a(eh_unex_handler.o)
 .comment       0x0000000000000023       0x24 c:/devkitpro/devkitppc/bin/../lib/gcc/powerpc-eabi/12.1.0/../../../../powerpc-eabi/lib\libstdc++.a(eh_call.o)
 .comment       0x0000000000000023       0x24 c:/devkitpro/devkitppc/bin/../lib/gcc/powerpc-eabi/12.1.0/../../../../powerpc-eabi/lib\libstdc++.a(eh_catch.o)
 .comment       0x0000000000000023       0x24 c:/devkitpro/devkitppc/bin/../lib/gcc/powerpc-eabi/12.1.0/../../../../powerpc-eabi/lib\libstdc++.a(eh_exception.o)
 .comment       0x0000000000000023       0x24 c:/devkitpro/devkitppc/bin/../lib/gcc/powerpc-eabi/12.1.0/../../../../powerpc-eabi/lib\libstdc++.a(eh_globals.o)
 .comment       0x0000000000000023       0x24 c:/devkitpro/devkitppc/bin/../lib/gcc/powerpc-eabi/12.1.0/../../../../powerpc-eabi/lib\libstdc++.a(eh_term_handler.o)
 .comment       0x0000000000000023       0x24 c:/devkitpro/devkitppc/bin/../lib/gcc/powerpc-eabi/12.1.0/../../../../powerpc-eabi/lib\libstdc++.a(si_class_type_info.o)
 .comment       0x0000000000000023       0x24 c:/devkitpro/devkitppc/bin/../lib/gcc/powerpc-eabi/12.1.0/../../../../powerpc-eabi/lib\libstdc++.a(tinfo.o)
 .comment       0x0000000000000023       0x24 c:/devkitpro/devkitppc/bin/../lib/gcc/powerpc-eabi/12.1.0/../../../../powerpc-eabi/lib\libstdc++.a(class_type_info.o)
 .comment       0x0000000000000023       0x24 c:/devkitpro/devkitppc/bin/../lib/gcc/powerpc-eabi/12.1.0\libgcc.a(gthr-dkp.o)
 .comment       0x0000000000000023       0x24 c:/devkitpro/devkitppc/bin/../lib/gcc/powerpc-eabi/12.1.0\libgcc.a(unwind-dw2.o)
 .comment       0x0000000000000023       0x24 c:/devkitpro/devkitppc/bin/../lib/gcc/powerpc-eabi/12.1.0\libgcc.a(unwind-dw2-fde.o)
 .comment       0x0000000000000023       0x24 c:/devkitpro/devkitppc/bin/../lib/gcc/powerpc-eabi/12.1.0/../../../../powerpc-eabi/lib\libsysbase.a(abort.o)
 .comment       0x0000000000000023       0x24 c:/devkitpro/devkitppc/bin/../lib/gcc/powerpc-eabi/12.1.0/../../../../powerpc-eabi/lib\libsysbase.a(_exit.o)
 .comment       0x0000000000000023       0x24 c:/devkitpro/devkitppc/bin/../lib/gcc/powerpc-eabi/12.1.0/../../../../powerpc-eabi/lib\libc.a(lib_a-malloc.o)
 .comment       0x0000000000000023       0x24 c:/devkitpro/devkitppc/bin/../lib/gcc/powerpc-eabi/12.1.0/../../../../powerpc-eabi/lib\libc.a(lib_a-mallocr.o)
 .comment       0x0000000000000023       0x24 c:/devkitpro/devkitppc/bin/../lib/gcc/powerpc-eabi/12.1.0/../../../../powerpc-eabi/lib\libc.a(lib_a-memcpy.o)
 .comment       0x0000000000000023       0x24 c:/devkitpro/devkitppc/bin/../lib/gcc/powerpc-eabi/12.1.0/../../../../powerpc-eabi/lib\libc.a(lib_a-memset.o)
 .comment       0x0000000000000023       0x24 c:/devkitpro/devkitppc/bin/../lib/gcc/powerpc-eabi/12.1.0/../../../../powerpc-eabi/lib\libc.a(lib_a-strcmp.o)
 .comment       0x0000000000000023       0x24 c:/devkitpro/devkitppc/bin/../lib/gcc/powerpc-eabi/12.1.0/../../../../powerpc-eabi/lib\libc.a(lib_a-strlen.o)
 .comment       0x0000000000000023       0x24 c:/devkitpro/devkitppc/bin/../lib/gcc/powerpc-eabi/12.1.0/../../../../powerpc-eabi/lib\libc.a(lib_a-syswrite.o)
 .comment       0x0000000000000023       0x24 c:/devkitpro/devkitppc/bin/../lib/gcc/powerpc-eabi/12.1.0/../../../../powerpc-eabi/lib\libc.a(lib_a-freer.o)
 .comment       0x0000000000000023       0x24 c:/devkitpro/devkitppc/bin/../lib/gcc/powerpc-eabi/12.1.0/../../../../powerpc-eabi/lib\libc.a(lib_a-impure.o)
 .comment       0x0000000000000023       0x24 c:/devkitpro/devkitppc/bin/../lib/gcc/powerpc-eabi/12.1.0/../../../../powerpc-eabi/lib\libsysbase.a(sbrk.o)
 .comment       0x0000000000000023       0x24 c:/devkitpro/devkitppc/bin/../lib/gcc/powerpc-eabi/12.1.0/../../../../powerpc-eabi/lib\libsysbase.a(write.o)
 .comment       0x0000000000000023       0x24 c:/devkitpro/devkitppc/bin/../lib/gcc/powerpc-eabi/12.1.0/../../../../powerpc-eabi/lib\libsysbase.a(handle_manager.o)
 .comment       0x0000000000000023       0x24 c:/devkitpro/devkitppc/bin/../lib/gcc/powerpc-eabi/12.1.0/../../../../powerpc-eabi/lib\libsysbase.a(syscall_support.o)
 .comment       0x0000000000000023       0x24 c:/devkitpro/devkitppc/bin/../lib/gcc/powerpc-eabi/12.1.0/../../../../powerpc-eabi/lib\libsysbase.a(iosupport.o)

.gnu.attributes
                0x0000000000000000       0x10
 .gnu.attributes
                0x0000000000000000       0x10 Main.o
